
bomb:     file format elf32-i386


Disassembly of section .init:

08048724 <_init>:
 8048724:	53                   	push   %ebx
 8048725:	83 ec 08             	sub    $0x8,%esp
 8048728:	e8 23 02 00 00       	call   8048950 <__x86.get_pc_thunk.bx>
 804872d:	81 c3 d3 38 00 00    	add    $0x38d3,%ebx
 8048733:	8b 83 fc ff ff ff    	mov    -0x4(%ebx),%eax
 8048739:	85 c0                	test   %eax,%eax
 804873b:	74 05                	je     8048742 <_init+0x1e>
 804873d:	e8 de 00 00 00       	call   8048820 <__gmon_start__@plt>
 8048742:	83 c4 08             	add    $0x8,%esp
 8048745:	5b                   	pop    %ebx
 8048746:	c3                   	ret    

Disassembly of section .plt:

08048750 <read@plt-0x10>:
 8048750:	ff 35 04 c0 04 08    	pushl  0x804c004
 8048756:	ff 25 08 c0 04 08    	jmp    *0x804c008
 804875c:	00 00                	add    %al,(%eax)
	...

08048760 <read@plt>:
 8048760:	ff 25 0c c0 04 08    	jmp    *0x804c00c
 8048766:	68 00 00 00 00       	push   $0x0
 804876b:	e9 e0 ff ff ff       	jmp    8048750 <_init+0x2c>

08048770 <fflush@plt>:
 8048770:	ff 25 10 c0 04 08    	jmp    *0x804c010
 8048776:	68 08 00 00 00       	push   $0x8
 804877b:	e9 d0 ff ff ff       	jmp    8048750 <_init+0x2c>

08048780 <fgets@plt>:
 8048780:	ff 25 14 c0 04 08    	jmp    *0x804c014
 8048786:	68 10 00 00 00       	push   $0x10
 804878b:	e9 c0 ff ff ff       	jmp    8048750 <_init+0x2c>

08048790 <signal@plt>:
 8048790:	ff 25 18 c0 04 08    	jmp    *0x804c018
 8048796:	68 18 00 00 00       	push   $0x18
 804879b:	e9 b0 ff ff ff       	jmp    8048750 <_init+0x2c>

080487a0 <sleep@plt>:
 80487a0:	ff 25 1c c0 04 08    	jmp    *0x804c01c
 80487a6:	68 20 00 00 00       	push   $0x20
 80487ab:	e9 a0 ff ff ff       	jmp    8048750 <_init+0x2c>

080487b0 <alarm@plt>:
 80487b0:	ff 25 20 c0 04 08    	jmp    *0x804c020
 80487b6:	68 28 00 00 00       	push   $0x28
 80487bb:	e9 90 ff ff ff       	jmp    8048750 <_init+0x2c>

080487c0 <__stack_chk_fail@plt>:
 80487c0:	ff 25 24 c0 04 08    	jmp    *0x804c024
 80487c6:	68 30 00 00 00       	push   $0x30
 80487cb:	e9 80 ff ff ff       	jmp    8048750 <_init+0x2c>

080487d0 <strcpy@plt>:
 80487d0:	ff 25 28 c0 04 08    	jmp    *0x804c028
 80487d6:	68 38 00 00 00       	push   $0x38
 80487db:	e9 70 ff ff ff       	jmp    8048750 <_init+0x2c>

080487e0 <getenv@plt>:
 80487e0:	ff 25 2c c0 04 08    	jmp    *0x804c02c
 80487e6:	68 40 00 00 00       	push   $0x40
 80487eb:	e9 60 ff ff ff       	jmp    8048750 <_init+0x2c>

080487f0 <puts@plt>:
 80487f0:	ff 25 30 c0 04 08    	jmp    *0x804c030
 80487f6:	68 48 00 00 00       	push   $0x48
 80487fb:	e9 50 ff ff ff       	jmp    8048750 <_init+0x2c>

08048800 <__memmove_chk@plt>:
 8048800:	ff 25 34 c0 04 08    	jmp    *0x804c034
 8048806:	68 50 00 00 00       	push   $0x50
 804880b:	e9 40 ff ff ff       	jmp    8048750 <_init+0x2c>

08048810 <__memcpy_chk@plt>:
 8048810:	ff 25 38 c0 04 08    	jmp    *0x804c038
 8048816:	68 58 00 00 00       	push   $0x58
 804881b:	e9 30 ff ff ff       	jmp    8048750 <_init+0x2c>

08048820 <__gmon_start__@plt>:
 8048820:	ff 25 3c c0 04 08    	jmp    *0x804c03c
 8048826:	68 60 00 00 00       	push   $0x60
 804882b:	e9 20 ff ff ff       	jmp    8048750 <_init+0x2c>

08048830 <exit@plt>:
 8048830:	ff 25 40 c0 04 08    	jmp    *0x804c040
 8048836:	68 68 00 00 00       	push   $0x68
 804883b:	e9 10 ff ff ff       	jmp    8048750 <_init+0x2c>

08048840 <__libc_start_main@plt>:
 8048840:	ff 25 44 c0 04 08    	jmp    *0x804c044
 8048846:	68 70 00 00 00       	push   $0x70
 804884b:	e9 00 ff ff ff       	jmp    8048750 <_init+0x2c>

08048850 <write@plt>:
 8048850:	ff 25 48 c0 04 08    	jmp    *0x804c048
 8048856:	68 78 00 00 00       	push   $0x78
 804885b:	e9 f0 fe ff ff       	jmp    8048750 <_init+0x2c>

08048860 <__isoc99_sscanf@plt>:
 8048860:	ff 25 4c c0 04 08    	jmp    *0x804c04c
 8048866:	68 80 00 00 00       	push   $0x80
 804886b:	e9 e0 fe ff ff       	jmp    8048750 <_init+0x2c>

08048870 <fopen@plt>:
 8048870:	ff 25 50 c0 04 08    	jmp    *0x804c050
 8048876:	68 88 00 00 00       	push   $0x88
 804887b:	e9 d0 fe ff ff       	jmp    8048750 <_init+0x2c>

08048880 <__errno_location@plt>:
 8048880:	ff 25 54 c0 04 08    	jmp    *0x804c054
 8048886:	68 90 00 00 00       	push   $0x90
 804888b:	e9 c0 fe ff ff       	jmp    8048750 <_init+0x2c>

08048890 <__printf_chk@plt>:
 8048890:	ff 25 58 c0 04 08    	jmp    *0x804c058
 8048896:	68 98 00 00 00       	push   $0x98
 804889b:	e9 b0 fe ff ff       	jmp    8048750 <_init+0x2c>

080488a0 <socket@plt>:
 80488a0:	ff 25 5c c0 04 08    	jmp    *0x804c05c
 80488a6:	68 a0 00 00 00       	push   $0xa0
 80488ab:	e9 a0 fe ff ff       	jmp    8048750 <_init+0x2c>

080488b0 <__fprintf_chk@plt>:
 80488b0:	ff 25 60 c0 04 08    	jmp    *0x804c060
 80488b6:	68 a8 00 00 00       	push   $0xa8
 80488bb:	e9 90 fe ff ff       	jmp    8048750 <_init+0x2c>

080488c0 <gethostbyname@plt>:
 80488c0:	ff 25 64 c0 04 08    	jmp    *0x804c064
 80488c6:	68 b0 00 00 00       	push   $0xb0
 80488cb:	e9 80 fe ff ff       	jmp    8048750 <_init+0x2c>

080488d0 <strtol@plt>:
 80488d0:	ff 25 68 c0 04 08    	jmp    *0x804c068
 80488d6:	68 b8 00 00 00       	push   $0xb8
 80488db:	e9 70 fe ff ff       	jmp    8048750 <_init+0x2c>

080488e0 <connect@plt>:
 80488e0:	ff 25 6c c0 04 08    	jmp    *0x804c06c
 80488e6:	68 c0 00 00 00       	push   $0xc0
 80488eb:	e9 60 fe ff ff       	jmp    8048750 <_init+0x2c>

080488f0 <close@plt>:
 80488f0:	ff 25 70 c0 04 08    	jmp    *0x804c070
 80488f6:	68 c8 00 00 00       	push   $0xc8
 80488fb:	e9 50 fe ff ff       	jmp    8048750 <_init+0x2c>

08048900 <__ctype_b_loc@plt>:
 8048900:	ff 25 74 c0 04 08    	jmp    *0x804c074
 8048906:	68 d0 00 00 00       	push   $0xd0
 804890b:	e9 40 fe ff ff       	jmp    8048750 <_init+0x2c>

08048910 <__sprintf_chk@plt>:
 8048910:	ff 25 78 c0 04 08    	jmp    *0x804c078
 8048916:	68 d8 00 00 00       	push   $0xd8
 804891b:	e9 30 fe ff ff       	jmp    8048750 <_init+0x2c>

Disassembly of section .text:

08048920 <_start>:
 8048920:	31 ed                	xor    %ebp,%ebp
 8048922:	5e                   	pop    %esi
 8048923:	89 e1                	mov    %esp,%ecx
 8048925:	83 e4 f0             	and    $0xfffffff0,%esp
 8048928:	50                   	push   %eax
 8048929:	54                   	push   %esp
 804892a:	52                   	push   %edx
 804892b:	68 c0 9f 04 08       	push   $0x8049fc0
 8048930:	68 50 9f 04 08       	push   $0x8049f50
 8048935:	51                   	push   %ecx
 8048936:	56                   	push   %esi
 8048937:	68 1d 8a 04 08       	push   $0x8048a1d
 804893c:	e8 ff fe ff ff       	call   8048840 <__libc_start_main@plt>
 8048941:	f4                   	hlt    
 8048942:	66 90                	xchg   %ax,%ax
 8048944:	66 90                	xchg   %ax,%ax
 8048946:	66 90                	xchg   %ax,%ax
 8048948:	66 90                	xchg   %ax,%ax
 804894a:	66 90                	xchg   %ax,%ax
 804894c:	66 90                	xchg   %ax,%ax
 804894e:	66 90                	xchg   %ax,%ax

08048950 <__x86.get_pc_thunk.bx>:
 8048950:	8b 1c 24             	mov    (%esp),%ebx
 8048953:	c3                   	ret    
 8048954:	66 90                	xchg   %ax,%ax
 8048956:	66 90                	xchg   %ax,%ax
 8048958:	66 90                	xchg   %ax,%ax
 804895a:	66 90                	xchg   %ax,%ax
 804895c:	66 90                	xchg   %ax,%ax
 804895e:	66 90                	xchg   %ax,%ax

08048960 <deregister_tm_clones>:
 8048960:	b8 a3 c3 04 08       	mov    $0x804c3a3,%eax
 8048965:	2d a0 c3 04 08       	sub    $0x804c3a0,%eax
 804896a:	83 f8 06             	cmp    $0x6,%eax
 804896d:	77 01                	ja     8048970 <deregister_tm_clones+0x10>
 804896f:	c3                   	ret    
 8048970:	b8 00 00 00 00       	mov    $0x0,%eax
 8048975:	85 c0                	test   %eax,%eax
 8048977:	74 f6                	je     804896f <deregister_tm_clones+0xf>
 8048979:	55                   	push   %ebp
 804897a:	89 e5                	mov    %esp,%ebp
 804897c:	83 ec 18             	sub    $0x18,%esp
 804897f:	c7 04 24 a0 c3 04 08 	movl   $0x804c3a0,(%esp)
 8048986:	ff d0                	call   *%eax
 8048988:	c9                   	leave  
 8048989:	c3                   	ret    
 804898a:	8d b6 00 00 00 00    	lea    0x0(%esi),%esi

08048990 <register_tm_clones>:
 8048990:	b8 a0 c3 04 08       	mov    $0x804c3a0,%eax
 8048995:	2d a0 c3 04 08       	sub    $0x804c3a0,%eax
 804899a:	c1 f8 02             	sar    $0x2,%eax
 804899d:	89 c2                	mov    %eax,%edx
 804899f:	c1 ea 1f             	shr    $0x1f,%edx
 80489a2:	01 d0                	add    %edx,%eax
 80489a4:	d1 f8                	sar    %eax
 80489a6:	75 01                	jne    80489a9 <register_tm_clones+0x19>
 80489a8:	c3                   	ret    
 80489a9:	ba 00 00 00 00       	mov    $0x0,%edx
 80489ae:	85 d2                	test   %edx,%edx
 80489b0:	74 f6                	je     80489a8 <register_tm_clones+0x18>
 80489b2:	55                   	push   %ebp
 80489b3:	89 e5                	mov    %esp,%ebp
 80489b5:	83 ec 18             	sub    $0x18,%esp
 80489b8:	89 44 24 04          	mov    %eax,0x4(%esp)
 80489bc:	c7 04 24 a0 c3 04 08 	movl   $0x804c3a0,(%esp)
 80489c3:	ff d2                	call   *%edx
 80489c5:	c9                   	leave  
 80489c6:	c3                   	ret    
 80489c7:	89 f6                	mov    %esi,%esi
 80489c9:	8d bc 27 00 00 00 00 	lea    0x0(%edi,%eiz,1),%edi

080489d0 <__do_global_dtors_aux>:
 80489d0:	80 3d c4 c3 04 08 00 	cmpb   $0x0,0x804c3c4
 80489d7:	75 13                	jne    80489ec <__do_global_dtors_aux+0x1c>
 80489d9:	55                   	push   %ebp
 80489da:	89 e5                	mov    %esp,%ebp
 80489dc:	83 ec 08             	sub    $0x8,%esp
 80489df:	e8 7c ff ff ff       	call   8048960 <deregister_tm_clones>
 80489e4:	c6 05 c4 c3 04 08 01 	movb   $0x1,0x804c3c4
 80489eb:	c9                   	leave  
 80489ec:	f3 c3                	repz ret 
 80489ee:	66 90                	xchg   %ax,%ax

080489f0 <frame_dummy>:
 80489f0:	a1 10 bf 04 08       	mov    0x804bf10,%eax
 80489f5:	85 c0                	test   %eax,%eax
 80489f7:	74 1f                	je     8048a18 <frame_dummy+0x28>
 80489f9:	b8 00 00 00 00       	mov    $0x0,%eax
 80489fe:	85 c0                	test   %eax,%eax
 8048a00:	74 16                	je     8048a18 <frame_dummy+0x28>
 8048a02:	55                   	push   %ebp
 8048a03:	89 e5                	mov    %esp,%ebp
 8048a05:	83 ec 18             	sub    $0x18,%esp
 8048a08:	c7 04 24 10 bf 04 08 	movl   $0x804bf10,(%esp)
 8048a0f:	ff d0                	call   *%eax
 8048a11:	c9                   	leave  
 8048a12:	e9 79 ff ff ff       	jmp    8048990 <register_tm_clones>
 8048a17:	90                   	nop
 8048a18:	e9 73 ff ff ff       	jmp    8048990 <register_tm_clones>

08048a1d <main>:
 8048a1d:	55                   	push   %ebp
 8048a1e:	89 e5                	mov    %esp,%ebp
 8048a20:	53                   	push   %ebx
 8048a21:	83 e4 f0             	and    $0xfffffff0,%esp
 8048a24:	83 ec 10             	sub    $0x10,%esp
 8048a27:	8b 45 08             	mov    0x8(%ebp),%eax
 8048a2a:	8b 5d 0c             	mov    0xc(%ebp),%ebx
 8048a2d:	83 f8 01             	cmp    $0x1,%eax
 8048a30:	75 0c                	jne    8048a3e <main+0x21>
 8048a32:	a1 a4 c3 04 08       	mov    0x804c3a4,%eax
 8048a37:	a3 cc c3 04 08       	mov    %eax,0x804c3cc
 8048a3c:	eb 74                	jmp    8048ab2 <main+0x95>
 8048a3e:	83 f8 02             	cmp    $0x2,%eax
 8048a41:	75 49                	jne    8048a8c <main+0x6f>
 8048a43:	c7 44 24 04 e0 9f 04 	movl   $0x8049fe0,0x4(%esp)
 8048a4a:	08 
 8048a4b:	8b 43 04             	mov    0x4(%ebx),%eax
 8048a4e:	89 04 24             	mov    %eax,(%esp)
 8048a51:	e8 1a fe ff ff       	call   8048870 <fopen@plt>
 8048a56:	a3 cc c3 04 08       	mov    %eax,0x804c3cc
 8048a5b:	85 c0                	test   %eax,%eax
 8048a5d:	75 53                	jne    8048ab2 <main+0x95>
 8048a5f:	8b 43 04             	mov    0x4(%ebx),%eax
 8048a62:	89 44 24 0c          	mov    %eax,0xc(%esp)
 8048a66:	8b 03                	mov    (%ebx),%eax
 8048a68:	89 44 24 08          	mov    %eax,0x8(%esp)
 8048a6c:	c7 44 24 04 e2 9f 04 	movl   $0x8049fe2,0x4(%esp)
 8048a73:	08 
 8048a74:	c7 04 24 01 00 00 00 	movl   $0x1,(%esp)
 8048a7b:	e8 10 fe ff ff       	call   8048890 <__printf_chk@plt>
 8048a80:	c7 04 24 08 00 00 00 	movl   $0x8,(%esp)
 8048a87:	e8 a4 fd ff ff       	call   8048830 <exit@plt>
 8048a8c:	8b 03                	mov    (%ebx),%eax
 8048a8e:	89 44 24 08          	mov    %eax,0x8(%esp)
 8048a92:	c7 44 24 04 ff 9f 04 	movl   $0x8049fff,0x4(%esp)
 8048a99:	08 
 8048a9a:	c7 04 24 01 00 00 00 	movl   $0x1,(%esp)
 8048aa1:	e8 ea fd ff ff       	call   8048890 <__printf_chk@plt>
 8048aa6:	c7 04 24 08 00 00 00 	movl   $0x8,(%esp)
 8048aad:	e8 7e fd ff ff       	call   8048830 <exit@plt>
 8048ab2:	e8 af 05 00 00       	call   8049066 <initialize_bomb>
 8048ab7:	c7 04 24 64 a0 04 08 	movl   $0x804a064,(%esp)
 8048abe:	e8 2d fd ff ff       	call   80487f0 <puts@plt>
 8048ac3:	c7 04 24 a0 a0 04 08 	movl   $0x804a0a0,(%esp)
 8048aca:	e8 21 fd ff ff       	call   80487f0 <puts@plt>
 8048acf:	e8 a8 06 00 00       	call   804917c <read_line>
 8048ad4:	89 04 24             	mov    %eax,(%esp)
 8048ad7:	e8 b4 00 00 00       	call   8048b90 <phase_1>
 8048adc:	e8 95 07 00 00       	call   8049276 <phase_defused>
 8048ae1:	c7 04 24 cc a0 04 08 	movl   $0x804a0cc,(%esp)
 8048ae8:	e8 03 fd ff ff       	call   80487f0 <puts@plt>
 8048aed:	e8 8a 06 00 00       	call   804917c <read_line>
 8048af2:	89 04 24             	mov    %eax,(%esp)
 8048af5:	e8 ba 00 00 00       	call   8048bb4 <phase_2>
 8048afa:	e8 77 07 00 00       	call   8049276 <phase_defused>
 8048aff:	c7 04 24 19 a0 04 08 	movl   $0x804a019,(%esp)
 8048b06:	e8 e5 fc ff ff       	call   80487f0 <puts@plt>
 8048b0b:	e8 6c 06 00 00       	call   804917c <read_line>
 8048b10:	89 04 24             	mov    %eax,(%esp)
 8048b13:	e8 ea 00 00 00       	call   8048c02 <phase_3>
 8048b18:	e8 59 07 00 00       	call   8049276 <phase_defused>
 8048b1d:	c7 04 24 37 a0 04 08 	movl   $0x804a037,(%esp)
 8048b24:	e8 c7 fc ff ff       	call   80487f0 <puts@plt>
 8048b29:	e8 4e 06 00 00       	call   804917c <read_line>
 8048b2e:	89 04 24             	mov    %eax,(%esp)
 8048b31:	e8 aa 01 00 00       	call   8048ce0 <phase_4>
 8048b36:	e8 3b 07 00 00       	call   8049276 <phase_defused>
 8048b3b:	c7 04 24 f8 a0 04 08 	movl   $0x804a0f8,(%esp)
 8048b42:	e8 a9 fc ff ff       	call   80487f0 <puts@plt>
 8048b47:	e8 30 06 00 00       	call   804917c <read_line>
 8048b4c:	89 04 24             	mov    %eax,(%esp)
 8048b4f:	e8 ed 01 00 00       	call   8048d41 <phase_5>
 8048b54:	e8 1d 07 00 00       	call   8049276 <phase_defused>
 8048b59:	c7 04 24 46 a0 04 08 	movl   $0x804a046,(%esp)
 8048b60:	e8 8b fc ff ff       	call   80487f0 <puts@plt>
 8048b65:	e8 12 06 00 00       	call   804917c <read_line>
 8048b6a:	89 04 24             	mov    %eax,(%esp)
 8048b6d:	e8 53 02 00 00       	call   8048dc5 <phase_6>
 8048b72:	e8 ff 06 00 00       	call   8049276 <phase_defused>
 8048b77:	b8 00 00 00 00       	mov    $0x0,%eax
 8048b7c:	8b 5d fc             	mov    -0x4(%ebp),%ebx
 8048b7f:	c9                   	leave  
 8048b80:	c3                   	ret    
 8048b81:	66 90                	xchg   %ax,%ax
 8048b83:	66 90                	xchg   %ax,%ax
 8048b85:	66 90                	xchg   %ax,%ax
 8048b87:	66 90                	xchg   %ax,%ax
 8048b89:	66 90                	xchg   %ax,%ax
 8048b8b:	66 90                	xchg   %ax,%ax
 8048b8d:	66 90                	xchg   %ax,%ax
 8048b8f:	90                   	nop

08048b90 <phase_1>:
 8048b90:	83 ec 1c             	sub    $0x1c,%esp
 8048b93:	c7 44 24 04 1c a1 04 	movl   $0x804a11c,0x4(%esp)
 8048b9a:	08 
 8048b9b:	8b 44 24 20          	mov    0x20(%esp),%eax
 8048b9f:	89 04 24             	mov    %eax,(%esp)
 8048ba2:	e8 53 04 00 00       	call   8048ffa <strings_not_equal>
 8048ba7:	85 c0                	test   %eax,%eax
 8048ba9:	74 05                	je     8048bb0 <phase_1+0x20>
 8048bab:	e8 55 05 00 00       	call   8049105 <explode_bomb>
 8048bb0:	83 c4 1c             	add    $0x1c,%esp
 8048bb3:	c3                   	ret    

08048bb4 <phase_2>:
 8048bb4:	56                   	push   %esi
 8048bb5:	53                   	push   %ebx
 8048bb6:	83 ec 34             	sub    $0x34,%esp
 8048bb9:	8d 44 24 18          	lea    0x18(%esp),%eax
 8048bbd:	89 44 24 04          	mov    %eax,0x4(%esp)
 8048bc1:	8b 44 24 40          	mov    0x40(%esp),%eax
 8048bc5:	89 04 24             	mov    %eax,(%esp)
 8048bc8:	e8 5f 05 00 00       	call   804912c <read_six_numbers>
 8048bcd:	83 7c 24 18 01       	cmpl   $0x1,0x18(%esp)
 8048bd2:	74 1e                	je     8048bf2 <phase_2+0x3e>
 8048bd4:	e8 2c 05 00 00       	call   8049105 <explode_bomb>
 8048bd9:	eb 17                	jmp    8048bf2 <phase_2+0x3e>
 8048bdb:	8b 43 fc             	mov    -0x4(%ebx),%eax
 8048bde:	01 c0                	add    %eax,%eax
 8048be0:	39 03                	cmp    %eax,(%ebx)
 8048be2:	74 05                	je     8048be9 <phase_2+0x35>
 8048be4:	e8 1c 05 00 00       	call   8049105 <explode_bomb>
 8048be9:	83 c3 04             	add    $0x4,%ebx
 8048bec:	39 f3                	cmp    %esi,%ebx
 8048bee:	75 eb                	jne    8048bdb <phase_2+0x27>
 8048bf0:	eb 0a                	jmp    8048bfc <phase_2+0x48>
 8048bf2:	8d 5c 24 1c          	lea    0x1c(%esp),%ebx
 8048bf6:	8d 74 24 30          	lea    0x30(%esp),%esi
 8048bfa:	eb df                	jmp    8048bdb <phase_2+0x27>
 8048bfc:	83 c4 34             	add    $0x34,%esp
 8048bff:	5b                   	pop    %ebx
 8048c00:	5e                   	pop    %esi
 8048c01:	c3                   	ret    

08048c02 <phase_3>:
 8048c02:	83 ec 2c             	sub    $0x2c,%esp
 8048c05:	8d 44 24 1c          	lea    0x1c(%esp),%eax
 8048c09:	89 44 24 0c          	mov    %eax,0xc(%esp)
 8048c0d:	8d 44 24 18          	lea    0x18(%esp),%eax
 8048c11:	89 44 24 08          	mov    %eax,0x8(%esp)
 8048c15:	c7 44 24 04 bf a2 04 	movl   $0x804a2bf,0x4(%esp)
 8048c1c:	08 
 8048c1d:	8b 44 24 30          	mov    0x30(%esp),%eax
 8048c21:	89 04 24             	mov    %eax,(%esp)
 8048c24:	e8 37 fc ff ff       	call   8048860 <__isoc99_sscanf@plt>
 8048c29:	83 f8 01             	cmp    $0x1,%eax
 8048c2c:	7f 05                	jg     8048c33 <phase_3+0x31>
 8048c2e:	e8 d2 04 00 00       	call   8049105 <explode_bomb>
 8048c33:	83 7c 24 18 07       	cmpl   $0x7,0x18(%esp)
 8048c38:	77 3c                	ja     8048c76 <phase_3+0x74>
 8048c3a:	8b 44 24 18          	mov    0x18(%esp),%eax
 8048c3e:	ff 24 85 80 a1 04 08 	jmp    *0x804a180(,%eax,4)
 8048c45:	b8 7d 03 00 00       	mov    $0x37d,%eax
 8048c4a:	eb 3b                	jmp    8048c87 <phase_3+0x85>
 8048c4c:	b8 8d 01 00 00       	mov    $0x18d,%eax
 8048c51:	eb 34                	jmp    8048c87 <phase_3+0x85>
 8048c53:	b8 2f 02 00 00       	mov    $0x22f,%eax
 8048c58:	eb 2d                	jmp    8048c87 <phase_3+0x85>
 8048c5a:	b8 d1 00 00 00       	mov    $0xd1,%eax
 8048c5f:	eb 26                	jmp    8048c87 <phase_3+0x85>
 8048c61:	b8 b2 00 00 00       	mov    $0xb2,%eax
 8048c66:	eb 1f                	jmp    8048c87 <phase_3+0x85>
 8048c68:	b8 79 01 00 00       	mov    $0x179,%eax
 8048c6d:	eb 18                	jmp    8048c87 <phase_3+0x85>
 8048c6f:	b8 25 02 00 00       	mov    $0x225,%eax
 8048c74:	eb 11                	jmp    8048c87 <phase_3+0x85>
 8048c76:	e8 8a 04 00 00       	call   8049105 <explode_bomb>
 8048c7b:	b8 00 00 00 00       	mov    $0x0,%eax
 8048c80:	eb 05                	jmp    8048c87 <phase_3+0x85>
 8048c82:	b8 d0 03 00 00       	mov    $0x3d0,%eax
 8048c87:	3b 44 24 1c          	cmp    0x1c(%esp),%eax
 8048c8b:	74 05                	je     8048c92 <phase_3+0x90>
 8048c8d:	e8 73 04 00 00       	call   8049105 <explode_bomb>
 8048c92:	83 c4 2c             	add    $0x2c,%esp
 8048c95:	c3                   	ret    

08048c96 <func4>:
 8048c96:	57                   	push   %edi
 8048c97:	56                   	push   %esi
 8048c98:	53                   	push   %ebx
 8048c99:	83 ec 10             	sub    $0x10,%esp
 8048c9c:	8b 5c 24 20          	mov    0x20(%esp),%ebx  //first argumet
 8048ca0:	8b 74 24 24          	mov    0x24(%esp),%esi //second argument
 8048ca4:	85 db                	test   %ebx,%ebx
 8048ca6:	7e 2c                	jle    8048cd4 <func4+0x3e>
 8048ca8:	89 f0                	mov    %esi,%eax
 8048caa:	83 fb 01             	cmp    $0x1,%ebx
 8048cad:	74 2a                	je     8048cd9 <func4+0x43>
 8048caf:	89 74 24 04          	mov    %esi,0x4(%esp)
 8048cb3:	8d 43 ff             	lea    -0x1(%ebx),%eax
 8048cb6:	89 04 24             	mov    %eax,(%esp)
 8048cb9:	e8 d8 ff ff ff       	call   8048c96 <func4>
 8048cbe:	8d 3c 30             	lea    (%eax,%esi,1),%edi
 8048cc1:	89 74 24 04          	mov    %esi,0x4(%esp)
 8048cc5:	83 eb 02             	sub    $0x2,%ebx
 8048cc8:	89 1c 24             	mov    %ebx,(%esp)
 8048ccb:	e8 c6 ff ff ff       	call   8048c96 <func4>
 8048cd0:	01 f8                	add    %edi,%eax
 8048cd2:	eb 05                	jmp    8048cd9 <func4+0x43>
 8048cd4:	b8 00 00 00 00       	mov    $0x0,%eax
 8048cd9:	83 c4 10             	add    $0x10,%esp
 8048cdc:	5b                   	pop    %ebx
 8048cdd:	5e                   	pop    %esi
 8048cde:	5f                   	pop    %edi
 8048cdf:	c3                   	ret    

08048ce0 <phase_4>:
 8048ce0:	83 ec 2c             	sub    $0x2c,%esp
 8048ce3:	8d 44 24 18          	lea    0x18(%esp),%eax
 8048ce7:	89 44 24 0c          	mov    %eax,0xc(%esp)
 8048ceb:	8d 44 24 1c          	lea    0x1c(%esp),%eax
 8048cef:	89 44 24 08          	mov    %eax,0x8(%esp)
 8048cf3:	c7 44 24 04 bf a2 04 	movl   $0x804a2bf,0x4(%esp)
 8048cfa:	08 
 8048cfb:	8b 44 24 30          	mov    0x30(%esp),%eax
 8048cff:	89 04 24             	mov    %eax,(%esp)
 8048d02:	e8 59 fb ff ff       	call   8048860 <__isoc99_sscanf@plt>
 8048d07:	83 f8 02             	cmp    $0x2,%eax
 8048d0a:	75 0c                	jne    8048d18 <phase_4+0x38>
 8048d0c:	8b 44 24 18          	mov    0x18(%esp),%eax  //second argument
 8048d10:	83 e8 02             	sub    $0x2,%eax
 8048d13:	83 f8 02             	cmp    $0x2,%eax
 8048d16:	76 05                	jbe    8048d1d <phase_4+0x3d>
 8048d18:	e8 e8 03 00 00       	call   8049105 <explode_bomb>
 8048d1d:	8b 44 24 18          	mov    0x18(%esp),%eax
 8048d21:	89 44 24 04          	mov    %eax,0x4(%esp)
 8048d25:	c7 04 24 06 00 00 00 	movl   $0x6,(%esp)
 8048d2c:	e8 65 ff ff ff       	call   8048c96 <func4>
 8048d31:	3b 44 24 1c          	cmp    0x1c(%esp),%eax  //1c--first argument
 8048d35:	74 05                	je     8048d3c <phase_4+0x5c>
 8048d37:	e8 c9 03 00 00       	call   8049105 <explode_bomb>
 8048d3c:	83 c4 2c             	add    $0x2c,%esp
 8048d3f:	90                   	nop
 8048d40:	c3                   	ret    

08048d41 <phase_5>:
 8048d41:	53                   	push   %ebx
 8048d42:	83 ec 28             	sub    $0x28,%esp
 8048d45:	8b 5c 24 30          	mov    0x30(%esp),%ebx
 8048d49:	65 a1 14 00 00 00    	mov    %gs:0x14,%eax
 8048d4f:	89 44 24 1c          	mov    %eax,0x1c(%esp)
 8048d53:	31 c0                	xor    %eax,%eax
 8048d55:	89 1c 24             	mov    %ebx,(%esp)
 8048d58:	e8 7e 02 00 00       	call   8048fdb <string_length>
 8048d5d:	83 f8 06             	cmp    $0x6,%eax
 8048d60:	74 45                	je     8048da7 <phase_5+0x66>
 8048d62:	e8 9e 03 00 00       	call   8049105 <explode_bomb>
 8048d67:	eb 3e                	jmp    8048da7 <phase_5+0x66>
 8048d69:	0f b6 14 03          	movzbl (%ebx,%eax,1),%edx
 8048d6d:	83 e2 0f             	and    $0xf,%edx
 8048d70:	0f b6 92 a0 a1 04 08 	movzbl 0x804a1a0(%edx),%edx
 8048d77:	88 54 04 15          	mov    %dl,0x15(%esp,%eax,1)
 8048d7b:	83 c0 01             	add    $0x1,%eax
 8048d7e:	83 f8 06             	cmp    $0x6,%eax
 8048d81:	75 e6                	jne    8048d69 <phase_5+0x28>
 8048d83:	c6 44 24 1b 00       	movb   $0x0,0x1b(%esp)
 8048d88:	c7 44 24 04 76 a1 04 	movl   $0x804a176,0x4(%esp)
 8048d8f:	08 
 8048d90:	8d 44 24 15          	lea    0x15(%esp),%eax
 8048d94:	89 04 24             	mov    %eax,(%esp)
 8048d97:	e8 5e 02 00 00       	call   8048ffa <strings_not_equal>
 8048d9c:	85 c0                	test   %eax,%eax
 8048d9e:	74 0e                	je     8048dae <phase_5+0x6d>
 8048da0:	e8 60 03 00 00       	call   8049105 <explode_bomb>
 8048da5:	eb 07                	jmp    8048dae <phase_5+0x6d>
 8048da7:	b8 00 00 00 00       	mov    $0x0,%eax
 8048dac:	eb bb                	jmp    8048d69 <phase_5+0x28>
 8048dae:	8b 44 24 1c          	mov    0x1c(%esp),%eax
 8048db2:	65 33 05 14 00 00 00 	xor    %gs:0x14,%eax
 8048db9:	74 05                	je     8048dc0 <phase_5+0x7f>
 8048dbb:	e8 00 fa ff ff       	call   80487c0 <__stack_chk_fail@plt>
 8048dc0:	83 c4 28             	add    $0x28,%esp
 8048dc3:	5b                   	pop    %ebx
 8048dc4:	c3                   	ret    

08048dc5 <phase_6>:
 8048dc5:	56                   	push   %esi
 8048dc6:	53                   	push   %ebx
 8048dc7:	83 ec 44             	sub    $0x44,%esp
 8048dca:	8d 44 24 10          	lea    0x10(%esp),%eax
 8048dce:	89 44 24 04          	mov    %eax,0x4(%esp)
 8048dd2:	8b 44 24 50          	mov    0x50(%esp),%eax
 8048dd6:	89 04 24             	mov    %eax,(%esp)
 8048dd9:	e8 4e 03 00 00       	call   804912c <read_six_numbers>
 8048dde:	be 00 00 00 00       	mov    $0x0,%esi
 8048de3:	8b 44 b4 10          	mov    0x10(%esp,%esi,4),%eax
 8048de7:	83 e8 01             	sub    $0x1,%eax
 8048dea:	83 f8 05             	cmp    $0x5,%eax
//everything is between 1 and 6(include 1 and 6)
 8048ded:	76 05                	jbe    8048df4 <phase_6+0x2f>
 8048def:	e8 11 03 00 00       	call   8049105 <explode_bomb>
 8048df4:	83 c6 01             	add    $0x1,%esi
 8048df7:	83 fe 06             	cmp    $0x6,%esi
 8048dfa:	75 07                	jne    8048e03 <phase_6+0x3e>
//if every number is different, then:
 8048dfc:	bb 00 00 00 00       	mov    $0x0,%ebx
 8048e01:	eb 38                	jmp    8048e3b <phase_6+0x76>
 8048e03:	89 f3                	mov    %esi,%ebx
 8048e05:	8b 44 9c 10          	mov    0x10(%esp,%ebx,4),%eax
 8048e09:	39 44 b4 0c          	cmp    %eax,0xc(%esp,%esi,4)
 8048e0d:	75 05                	jne    8048e14 <phase_6+0x4f>
 //don't equal
 8048e0f:	e8 f1 02 00 00       	call   8049105 <explode_bomb>
 8048e14:	83 c3 01             	add    $0x1,%ebx
 8048e17:	83 fb 05             	cmp    $0x5,%ebx
 8048e1a:	7e e9                	jle    8048e05 <phase_6+0x40>
//every number shoud be different
 8048e1c:	eb c5                	jmp    8048de3 <phase_6+0x1e>
//from 8048e50
 8048e1e:	8b 52 08             	mov    0x8(%edx),%edx
 8048e21:	83 c0 01             	add    $0x1,%eax
 8048e24:	39 c8                	cmp    %ecx,%eax
 8048e26:	75 f6                	jne    8048e1e <phase_6+0x59>
 8048e28:	eb 05                	jmp    8048e2f <phase_6+0x6a>
//if the first number is 1, jump to here
 8048e2a:	ba 3c c1 04 08       	mov    $0x804c13c,%edx
//0x28 is follow the six numbers(from 0x10)
 8048e2f:	89 54 b4 28          	mov    %edx,0x28(%esp,%esi,4)
 8048e33:	83 c3 01             	add    $0x1,%ebx
 8048e36:	83 fb 06             	cmp    $0x6,%ebx
 8048e39:	74 17                	je     8048e52 <phase_6+0x8d>

//now,from ebx = 0;
 8048e3b:	89 de                	mov    %ebx,%esi
 8048e3d:	8b 4c 9c 10          	mov    0x10(%esp,%ebx,4),%ecx
 8048e41:	83 f9 01             	cmp    $0x1,%ecx
//if the first number is 1:
 8048e44:	7e e4                	jle    8048e2a <phase_6+0x65>
//else:
 8048e46:	b8 01 00 00 00       	mov    $0x1,%eax
 8048e4b:	ba 3c c1 04 08       	mov    $0x804c13c,%edx
 8048e50:	eb cc                	jmp    8048e1e <phase_6+0x59>
//from 8048e39 when ebx == 6
 8048e52:	8b 5c 24 28          	mov    0x28(%esp),%ebx
 8048e56:	8d 44 24 2c          	lea    0x2c(%esp),%eax
 8048e5a:	8d 74 24 40          	lea    0x40(%esp),%esi
 8048e5e:	89 d9                	mov    %ebx,%ecx
 8048e60:	8b 10                	mov    (%eax),%edx
//ecx: cur  edx:next     resort
 8048e62:	89 51 08             	mov    %edx,0x8(%ecx)
 8048e65:	83 c0 04             	add    $0x4,%eax
 8048e68:	39 f0                	cmp    %esi,%eax
 8048e6a:	74 04                	je     8048e70 <phase_6+0xab>
 8048e6c:	89 d1                	mov    %edx,%ecx
 8048e6e:	eb f0                	jmp    8048e60 <phase_6+0x9b>
 8048e70:	c7 42 08 00 00 00 00 	movl   $0x0,0x8(%edx)
 8048e77:	be 05 00 00 00      	mov    $0x5,%esi
 8048e7c:	8b 43 08             	mov    0x8(%ebx),%eax
 8048e7f:	8b 00                	mov    (%eax),%eax
 8048e81:	39 03                	cmp    %eax,(%ebx)
 8048e83:	7d 05                	jge    8048e8a <phase_6+0xc5>
 8048e85:	e8 7b 02 00 00       	call   8049105 <explode_bomb>
 8048e8a:	8b 5b 08             	mov    0x8(%ebx),%ebx
 8048e8d:	83 ee 01             	sub    $0x1,%esi
 8048e90:	75 ea                	jne    8048e7c <phase_6+0xb7>
 8048e92:	83 c4 44             	add    $0x44,%esp
 8048e95:	5b                   	pop    %ebx
 8048e96:	5e                   	pop    %esi
 8048e97:	c3                   	ret    

08048e98 <fun7>:
 8048e98:	53                   	push   %ebx
 8048e99:	83 ec 18             	sub    $0x18,%esp
 8048e9c:	8b 54 24 20          	mov    0x20(%esp),%edx
 8048ea0:	8b 4c 24 24          	mov    0x24(%esp),%ecx
 8048ea4:	85 d2                	test   %edx,%edx
 8048ea6:	74 37                	je     8048edf <fun7+0x47>
 8048ea8:	8b 1a                	mov    (%edx),%ebx
 8048eaa:	39 cb                	cmp    %ecx,%ebx
 8048eac:	7e 13                	jle    8048ec1 <fun7+0x29>
 8048eae:	89 4c 24 04          	mov    %ecx,0x4(%esp)
 8048eb2:	8b 42 04             	mov    0x4(%edx),%eax
 8048eb5:	89 04 24             	mov    %eax,(%esp)
 8048eb8:	e8 db ff ff ff       	call   8048e98 <fun7>
 8048ebd:	01 c0                	add    %eax,%eax
 8048ebf:	eb 23                	jmp    8048ee4 <fun7+0x4c>
 8048ec1:	b8 00 00 00 00       	mov    $0x0,%eax
 8048ec6:	39 cb                	cmp    %ecx,%ebx
 8048ec8:	74 1a                	je     8048ee4 <fun7+0x4c>
 8048eca:	89 4c 24 04          	mov    %ecx,0x4(%esp)
 8048ece:	8b 42 08             	mov    0x8(%edx),%eax
 8048ed1:	89 04 24             	mov    %eax,(%esp)
 8048ed4:	e8 bf ff ff ff       	call   8048e98 <fun7>
 8048ed9:	8d 44 00 01          	lea    0x1(%eax,%eax,1),%eax
 8048edd:	eb 05                	jmp    8048ee4 <fun7+0x4c>
 8048edf:	b8 ff ff ff ff       	mov    $0xffffffff,%eax
 8048ee4:	83 c4 18             	add    $0x18,%esp
 8048ee7:	5b                   	pop    %ebx
 8048ee8:	c3                   	ret    

08048ee9 <secret_phase>:
 8048ee9:	53                   	push   %ebx
 8048eea:	83 ec 18             	sub    $0x18,%esp
 8048eed:	e8 8a 02 00 00       	call   804917c <read_line>
 8048ef2:	c7 44 24 08 0a 00 00 	movl   $0xa,0x8(%esp)
 8048ef9:	00 
 8048efa:	c7 44 24 04 00 00 00 	movl   $0x0,0x4(%esp)
 8048f01:	00 
 8048f02:	89 04 24             	mov    %eax,(%esp)
 8048f05:	e8 c6 f9 ff ff       	call   80488d0 <strtol@plt>
 8048f0a:	89 c3                	mov    %eax,%ebx
 8048f0c:	8d 40 ff             	lea    -0x1(%eax),%eax
 8048f0f:	3d e8 03 00 00       	cmp    $0x3e8,%eax
 8048f14:	76 05                	jbe    8048f1b <secret_phase+0x32>
 8048f16:	e8 ea 01 00 00       	call   8049105 <explode_bomb>
 8048f1b:	89 5c 24 04          	mov    %ebx,0x4(%esp)
 8048f1f:	c7 04 24 88 c0 04 08 	movl   $0x804c088,(%esp)
 8048f26:	e8 6d ff ff ff       	call   8048e98 <fun7>
 8048f2b:	85 c0                	test   %eax,%eax
 8048f2d:	74 05                	je     8048f34 <secret_phase+0x4b>
 8048f2f:	e8 d1 01 00 00       	call   8049105 <explode_bomb>
 8048f34:	c7 04 24 50 a1 04 08 	movl   $0x804a150,(%esp)
 8048f3b:	e8 b0 f8 ff ff       	call   80487f0 <puts@plt>
 8048f40:	e8 31 03 00 00       	call   8049276 <phase_defused>
 8048f45:	83 c4 18             	add    $0x18,%esp
 8048f48:	5b                   	pop    %ebx
 8048f49:	c3                   	ret    
 8048f4a:	66 90                	xchg   %ax,%ax
 8048f4c:	66 90                	xchg   %ax,%ax
 8048f4e:	66 90                	xchg   %ax,%ax

08048f50 <sig_handler>:
 8048f50:	83 ec 1c             	sub    $0x1c,%esp
 8048f53:	c7 04 24 b0 a1 04 08 	movl   $0x804a1b0,(%esp)
 8048f5a:	e8 91 f8 ff ff       	call   80487f0 <puts@plt>
 8048f5f:	c7 04 24 03 00 00 00 	movl   $0x3,(%esp)
 8048f66:	e8 35 f8 ff ff       	call   80487a0 <sleep@plt>
 8048f6b:	c7 44 24 04 72 a2 04 	movl   $0x804a272,0x4(%esp)
 8048f72:	08 
 8048f73:	c7 04 24 01 00 00 00 	movl   $0x1,(%esp)
 8048f7a:	e8 11 f9 ff ff       	call   8048890 <__printf_chk@plt>
 8048f7f:	a1 c0 c3 04 08       	mov    0x804c3c0,%eax
 8048f84:	89 04 24             	mov    %eax,(%esp)
 8048f87:	e8 e4 f7 ff ff       	call   8048770 <fflush@plt>
 8048f8c:	c7 04 24 01 00 00 00 	movl   $0x1,(%esp)
 8048f93:	e8 08 f8 ff ff       	call   80487a0 <sleep@plt>
 8048f98:	c7 04 24 7a a2 04 08 	movl   $0x804a27a,(%esp)
 8048f9f:	e8 4c f8 ff ff       	call   80487f0 <puts@plt>
 8048fa4:	c7 04 24 10 00 00 00 	movl   $0x10,(%esp)
 8048fab:	e8 80 f8 ff ff       	call   8048830 <exit@plt>

08048fb0 <invalid_phase>:
 8048fb0:	83 ec 1c             	sub    $0x1c,%esp
 8048fb3:	8b 44 24 20          	mov    0x20(%esp),%eax
 8048fb7:	89 44 24 08          	mov    %eax,0x8(%esp)
 8048fbb:	c7 44 24 04 82 a2 04 	movl   $0x804a282,0x4(%esp)
 8048fc2:	08 
 8048fc3:	c7 04 24 01 00 00 00 	movl   $0x1,(%esp)
 8048fca:	e8 c1 f8 ff ff       	call   8048890 <__printf_chk@plt>
 8048fcf:	c7 04 24 08 00 00 00 	movl   $0x8,(%esp)
 8048fd6:	e8 55 f8 ff ff       	call   8048830 <exit@plt>

08048fdb <string_length>:
 8048fdb:	8b 54 24 04          	mov    0x4(%esp),%edx
 8048fdf:	80 3a 00             	cmpb   $0x0,(%edx)
 8048fe2:	74 10                	je     8048ff4 <string_length+0x19>
 8048fe4:	b8 00 00 00 00       	mov    $0x0,%eax
 8048fe9:	83 c0 01             	add    $0x1,%eax
 8048fec:	80 3c 02 00          	cmpb   $0x0,(%edx,%eax,1)
 8048ff0:	75 f7                	jne    8048fe9 <string_length+0xe>
 8048ff2:	f3 c3                	repz ret 
 8048ff4:	b8 00 00 00 00       	mov    $0x0,%eax
 8048ff9:	c3                   	ret    

08048ffa <strings_not_equal>:
 8048ffa:	57                   	push   %edi
 8048ffb:	56                   	push   %esi
 8048ffc:	53                   	push   %ebx
 8048ffd:	83 ec 04             	sub    $0x4,%esp
 8049000:	8b 5c 24 14          	mov    0x14(%esp),%ebx
 8049004:	8b 74 24 18          	mov    0x18(%esp),%esi
 8049008:	89 1c 24             	mov    %ebx,(%esp)
 804900b:	e8 cb ff ff ff       	call   8048fdb <string_length>
 8049010:	89 c7                	mov    %eax,%edi
 8049012:	89 34 24             	mov    %esi,(%esp)
 8049015:	e8 c1 ff ff ff       	call   8048fdb <string_length>
 804901a:	ba 01 00 00 00       	mov    $0x1,%edx
 804901f:	39 c7                	cmp    %eax,%edi
 8049021:	75 3a                	jne    804905d <strings_not_equal+0x63>
 8049023:	0f b6 03             	movzbl (%ebx),%eax
 8049026:	84 c0                	test   %al,%al
 8049028:	74 20                	je     804904a <strings_not_equal+0x50>
 804902a:	3a 06                	cmp    (%esi),%al
 804902c:	74 08                	je     8049036 <strings_not_equal+0x3c>
 804902e:	66 90                	xchg   %ax,%ax
 8049030:	eb 1f                	jmp    8049051 <strings_not_equal+0x57>
 8049032:	3a 06                	cmp    (%esi),%al
 8049034:	75 22                	jne    8049058 <strings_not_equal+0x5e>
 8049036:	83 c3 01             	add    $0x1,%ebx
 8049039:	83 c6 01             	add    $0x1,%esi
 804903c:	0f b6 03             	movzbl (%ebx),%eax
 804903f:	84 c0                	test   %al,%al
 8049041:	75 ef                	jne    8049032 <strings_not_equal+0x38>
 8049043:	ba 00 00 00 00       	mov    $0x0,%edx
 8049048:	eb 13                	jmp    804905d <strings_not_equal+0x63>
 804904a:	ba 00 00 00 00       	mov    $0x0,%edx
 804904f:	eb 0c                	jmp    804905d <strings_not_equal+0x63>
 8049051:	ba 01 00 00 00       	mov    $0x1,%edx
 8049056:	eb 05                	jmp    804905d <strings_not_equal+0x63>
 8049058:	ba 01 00 00 00       	mov    $0x1,%edx
 804905d:	89 d0                	mov    %edx,%eax
 804905f:	83 c4 04             	add    $0x4,%esp
 8049062:	5b                   	pop    %ebx
 8049063:	5e                   	pop    %esi
 8049064:	5f                   	pop    %edi
 8049065:	c3                   	ret    

08049066 <initialize_bomb>:
 8049066:	83 ec 1c             	sub    $0x1c,%esp
 8049069:	c7 44 24 04 50 8f 04 	movl   $0x8048f50,0x4(%esp)
 8049070:	08 
 8049071:	c7 04 24 02 00 00 00 	movl   $0x2,(%esp)
 8049078:	e8 13 f7 ff ff       	call   8048790 <signal@plt>
 804907d:	83 c4 1c             	add    $0x1c,%esp
 8049080:	c3                   	ret    

08049081 <initialize_bomb_solve>:
 8049081:	f3 c3                	repz ret 

08049083 <blank_line>:
 8049083:	56                   	push   %esi
 8049084:	53                   	push   %ebx
 8049085:	83 ec 04             	sub    $0x4,%esp
 8049088:	8b 5c 24 10          	mov    0x10(%esp),%ebx
 804908c:	eb 16                	jmp    80490a4 <blank_line+0x21>
 804908e:	e8 6d f8 ff ff       	call   8048900 <__ctype_b_loc@plt>
 8049093:	83 c3 01             	add    $0x1,%ebx
 8049096:	89 f2                	mov    %esi,%edx
 8049098:	0f be f2             	movsbl %dl,%esi
 804909b:	8b 00                	mov    (%eax),%eax
 804909d:	f6 44 70 01 20       	testb  $0x20,0x1(%eax,%esi,2)
 80490a2:	74 10                	je     80490b4 <blank_line+0x31>
 80490a4:	0f b6 33             	movzbl (%ebx),%esi
 80490a7:	89 f0                	mov    %esi,%eax
 80490a9:	84 c0                	test   %al,%al
 80490ab:	75 e1                	jne    804908e <blank_line+0xb>
 80490ad:	b8 01 00 00 00       	mov    $0x1,%eax
 80490b2:	eb 05                	jmp    80490b9 <blank_line+0x36>
 80490b4:	b8 00 00 00 00       	mov    $0x0,%eax
 80490b9:	83 c4 04             	add    $0x4,%esp
 80490bc:	5b                   	pop    %ebx
 80490bd:	5e                   	pop    %esi
 80490be:	c3                   	ret    

080490bf <skip>:
 80490bf:	53                   	push   %ebx
 80490c0:	83 ec 18             	sub    $0x18,%esp
 80490c3:	a1 cc c3 04 08       	mov    0x804c3cc,%eax
 80490c8:	89 44 24 08          	mov    %eax,0x8(%esp)
 80490cc:	c7 44 24 04 50 00 00 	movl   $0x50,0x4(%esp)
 80490d3:	00 
 80490d4:	a1 c8 c3 04 08       	mov    0x804c3c8,%eax
 80490d9:	8d 04 80             	lea    (%eax,%eax,4),%eax
 80490dc:	c1 e0 04             	shl    $0x4,%eax
 80490df:	05 e0 c3 04 08       	add    $0x804c3e0,%eax
 80490e4:	89 04 24             	mov    %eax,(%esp)
 80490e7:	e8 94 f6 ff ff       	call   8048780 <fgets@plt>
 80490ec:	89 c3                	mov    %eax,%ebx
 80490ee:	85 c0                	test   %eax,%eax
 80490f0:	74 0c                	je     80490fe <skip+0x3f>
 80490f2:	89 04 24             	mov    %eax,(%esp)
 80490f5:	e8 89 ff ff ff       	call   8049083 <blank_line>
 80490fa:	85 c0                	test   %eax,%eax
 80490fc:	75 c5                	jne    80490c3 <skip+0x4>
 80490fe:	89 d8                	mov    %ebx,%eax
 8049100:	83 c4 18             	add    $0x18,%esp
 8049103:	5b                   	pop    %ebx
 8049104:	c3                   	ret    

08049105 <explode_bomb>:
 8049105:	83 ec 1c             	sub    $0x1c,%esp
 8049108:	c7 04 24 93 a2 04 08 	movl   $0x804a293,(%esp)
 804910f:	e8 dc f6 ff ff       	call   80487f0 <puts@plt>
 8049114:	c7 04 24 9c a2 04 08 	movl   $0x804a29c,(%esp)
 804911b:	e8 d0 f6 ff ff       	call   80487f0 <puts@plt>
 8049120:	c7 04 24 08 00 00 00 	movl   $0x8,(%esp)
 8049127:	e8 04 f7 ff ff       	call   8048830 <exit@plt>

0804912c <read_six_numbers>:
 804912c:	83 ec 2c             	sub    $0x2c,%esp
 804912f:	8b 44 24 34          	mov    0x34(%esp),%eax
 8049133:	8d 50 14             	lea    0x14(%eax),%edx
 8049136:	89 54 24 1c          	mov    %edx,0x1c(%esp)
 804913a:	8d 50 10             	lea    0x10(%eax),%edx
 804913d:	89 54 24 18          	mov    %edx,0x18(%esp)
 8049141:	8d 50 0c             	lea    0xc(%eax),%edx
 8049144:	89 54 24 14          	mov    %edx,0x14(%esp)
 8049148:	8d 50 08             	lea    0x8(%eax),%edx
 804914b:	89 54 24 10          	mov    %edx,0x10(%esp)
 804914f:	8d 50 04             	lea    0x4(%eax),%edx
 8049152:	89 54 24 0c          	mov    %edx,0xc(%esp)
 8049156:	89 44 24 08          	mov    %eax,0x8(%esp)
 804915a:	c7 44 24 04 b3 a2 04 	movl   $0x804a2b3,0x4(%esp)
 8049161:	08 
 8049162:	8b 44 24 30          	mov    0x30(%esp),%eax
 8049166:	89 04 24             	mov    %eax,(%esp)
 8049169:	e8 f2 f6 ff ff       	call   8048860 <__isoc99_sscanf@plt>
 804916e:	83 f8 05             	cmp    $0x5,%eax
 8049171:	7f 05                	jg     8049178 <read_six_numbers+0x4c>
 8049173:	e8 8d ff ff ff       	call   8049105 <explode_bomb>
 8049178:	83 c4 2c             	add    $0x2c,%esp
 804917b:	c3                   	ret    

0804917c <read_line>:
 804917c:	57                   	push   %edi
 804917d:	56                   	push   %esi
 804917e:	53                   	push   %ebx
 804917f:	83 ec 10             	sub    $0x10,%esp
 8049182:	e8 38 ff ff ff       	call   80490bf <skip>
 8049187:	85 c0                	test   %eax,%eax
 8049189:	75 6c                	jne    80491f7 <read_line+0x7b>
 804918b:	a1 a4 c3 04 08       	mov    0x804c3a4,%eax
 8049190:	39 05 cc c3 04 08    	cmp    %eax,0x804c3cc
 8049196:	75 18                	jne    80491b0 <read_line+0x34>
 8049198:	c7 04 24 c5 a2 04 08 	movl   $0x804a2c5,(%esp)
 804919f:	e8 4c f6 ff ff       	call   80487f0 <puts@plt>
 80491a4:	c7 04 24 08 00 00 00 	movl   $0x8,(%esp)
 80491ab:	e8 80 f6 ff ff       	call   8048830 <exit@plt>
 80491b0:	c7 04 24 e3 a2 04 08 	movl   $0x804a2e3,(%esp)
 80491b7:	e8 24 f6 ff ff       	call   80487e0 <getenv@plt>
 80491bc:	85 c0                	test   %eax,%eax
 80491be:	74 0c                	je     80491cc <read_line+0x50>
 80491c0:	c7 04 24 00 00 00 00 	movl   $0x0,(%esp)
 80491c7:	e8 64 f6 ff ff       	call   8048830 <exit@plt>
 80491cc:	a1 a4 c3 04 08       	mov    0x804c3a4,%eax
 80491d1:	a3 cc c3 04 08       	mov    %eax,0x804c3cc
 80491d6:	e8 e4 fe ff ff       	call   80490bf <skip>
 80491db:	85 c0                	test   %eax,%eax
 80491dd:	75 18                	jne    80491f7 <read_line+0x7b>
 80491df:	c7 04 24 c5 a2 04 08 	movl   $0x804a2c5,(%esp)
 80491e6:	e8 05 f6 ff ff       	call   80487f0 <puts@plt>
 80491eb:	c7 04 24 00 00 00 00 	movl   $0x0,(%esp)
 80491f2:	e8 39 f6 ff ff       	call   8048830 <exit@plt>
 80491f7:	8b 15 c8 c3 04 08    	mov    0x804c3c8,%edx
 80491fd:	8d 1c 92             	lea    (%edx,%edx,4),%ebx
 8049200:	c1 e3 04             	shl    $0x4,%ebx
 8049203:	81 c3 e0 c3 04 08    	add    $0x804c3e0,%ebx
 8049209:	89 df                	mov    %ebx,%edi
 804920b:	b8 00 00 00 00       	mov    $0x0,%eax
 8049210:	b9 ff ff ff ff       	mov    $0xffffffff,%ecx
 8049215:	f2 ae                	repnz scas %es:(%edi),%al
 8049217:	f7 d1                	not    %ecx
 8049219:	83 e9 01             	sub    $0x1,%ecx
 804921c:	83 f9 4e             	cmp    $0x4e,%ecx
 804921f:	7e 35                	jle    8049256 <read_line+0xda>
 8049221:	c7 04 24 ee a2 04 08 	movl   $0x804a2ee,(%esp)
 8049228:	e8 c3 f5 ff ff       	call   80487f0 <puts@plt>
 804922d:	a1 c8 c3 04 08       	mov    0x804c3c8,%eax
 8049232:	8d 50 01             	lea    0x1(%eax),%edx
 8049235:	89 15 c8 c3 04 08    	mov    %edx,0x804c3c8
 804923b:	6b c0 50             	imul   $0x50,%eax,%eax
 804923e:	05 e0 c3 04 08       	add    $0x804c3e0,%eax
 8049243:	be 09 a3 04 08       	mov    $0x804a309,%esi
 8049248:	b9 04 00 00 00       	mov    $0x4,%ecx
 804924d:	89 c7                	mov    %eax,%edi
 804924f:	f3 a5                	rep movsl %ds:(%esi),%es:(%edi)
 8049251:	e8 af fe ff ff       	call   8049105 <explode_bomb>
 8049256:	8d 04 92             	lea    (%edx,%edx,4),%eax
 8049259:	c1 e0 04             	shl    $0x4,%eax
 804925c:	c6 84 01 df c3 04 08 	movb   $0x0,0x804c3df(%ecx,%eax,1)
 8049263:	00 
 8049264:	83 c2 01             	add    $0x1,%edx
 8049267:	89 15 c8 c3 04 08    	mov    %edx,0x804c3c8
 804926d:	89 d8                	mov    %ebx,%eax
 804926f:	83 c4 10             	add    $0x10,%esp
 8049272:	5b                   	pop    %ebx
 8049273:	5e                   	pop    %esi
 8049274:	5f                   	pop    %edi
 8049275:	c3                   	ret    

08049276 <phase_defused>:
 8049276:	81 ec 8c 00 00 00    	sub    $0x8c,%esp
 804927c:	65 a1 14 00 00 00    	mov    %gs:0x14,%eax
 8049282:	89 44 24 7c          	mov    %eax,0x7c(%esp)
 8049286:	31 c0                	xor    %eax,%eax
 8049288:	83 3d c8 c3 04 08 06 	cmpl   $0x6,0x804c3c8
 804928f:	75 72                	jne    8049303 <phase_defused+0x8d>
 8049291:	8d 44 24 2c          	lea    0x2c(%esp),%eax
 8049295:	89 44 24 10          	mov    %eax,0x10(%esp)
 8049299:	8d 44 24 28          	lea    0x28(%esp),%eax
 804929d:	89 44 24 0c          	mov    %eax,0xc(%esp)
 80492a1:	8d 44 24 24          	lea    0x24(%esp),%eax
 80492a5:	89 44 24 08          	mov    %eax,0x8(%esp)
 80492a9:	c7 44 24 04 19 a3 04 	movl   $0x804a319,0x4(%esp)
 //%d %d %s
 80492b0:	08 
 80492b1:	c7 04 24 d0 c4 04 08 	movl   $0x804c4d0,(%esp)
 80492b8:	e8 a3 f5 ff ff       	call   8048860 <__isoc99_sscanf@plt>
 80492bd:	83 f8 03             	cmp    $0x3,%eax
 80492c0:	75 35                	jne    80492f7 <phase_defused+0x81>
 80492c2:	c7 44 24 04 22 a3 04 	movl   $0x804a322,0x4(%esp)
 80492c9:	08 
 80492ca:	8d 44 24 2c          	lea    0x2c(%esp),%eax
 80492ce:	89 04 24             	mov    %eax,(%esp)
 80492d1:	e8 24 fd ff ff       	call   8048ffa <strings_not_equal>
 80492d6:	85 c0                	test   %eax,%eax
 80492d8:	75 1d                	jne    80492f7 <phase_defused+0x81>
 80492da:	c7 04 24 e8 a1 04 08 	movl   $0x804a1e8,(%esp)
 80492e1:	e8 0a f5 ff ff       	call   80487f0 <puts@plt>
 80492e6:	c7 04 24 10 a2 04 08 	movl   $0x804a210,(%esp)
 80492ed:	e8 fe f4 ff ff       	call   80487f0 <puts@plt>
 80492f2:	e8 f2 fb ff ff       	call   8048ee9 <secret_phase>
 80492f7:	c7 04 24 48 a2 04 08 	movl   $0x804a248,(%esp)
 80492fe:	e8 ed f4 ff ff       	call   80487f0 <puts@plt>
 8049303:	8b 44 24 7c          	mov    0x7c(%esp),%eax
 8049307:	65 33 05 14 00 00 00 	xor    %gs:0x14,%eax
 804930e:	74 05                	je     8049315 <phase_defused+0x9f>
 8049310:	e8 ab f4 ff ff       	call   80487c0 <__stack_chk_fail@plt>
 8049315:	81 c4 8c 00 00 00    	add    $0x8c,%esp
 804931b:	c3                   	ret    
 804931c:	66 90                	xchg   %ax,%ax
 804931e:	66 90                	xchg   %ax,%ax

08049320 <sigalrm_handler>:
 8049320:	83 ec 1c             	sub    $0x1c,%esp
 8049323:	c7 44 24 0c 00 00 00 	movl   $0x0,0xc(%esp)
 804932a:	00 
 804932b:	c7 44 24 08 78 a3 04 	movl   $0x804a378,0x8(%esp)
 8049332:	08 
 8049333:	c7 44 24 04 01 00 00 	movl   $0x1,0x4(%esp)
 804933a:	00 
 804933b:	a1 a0 c3 04 08       	mov    0x804c3a0,%eax
 8049340:	89 04 24             	mov    %eax,(%esp)
 8049343:	e8 68 f5 ff ff       	call   80488b0 <__fprintf_chk@plt>
 8049348:	c7 04 24 01 00 00 00 	movl   $0x1,(%esp)
 804934f:	e8 dc f4 ff ff       	call   8048830 <exit@plt>

08049354 <rio_readlineb>:
 8049354:	55                   	push   %ebp
 8049355:	57                   	push   %edi
 8049356:	56                   	push   %esi
 8049357:	53                   	push   %ebx
 8049358:	83 ec 3c             	sub    $0x3c,%esp
 804935b:	89 d5                	mov    %edx,%ebp
 804935d:	83 f9 01             	cmp    $0x1,%ecx
 8049360:	0f 86 d0 00 00 00    	jbe    8049436 <rio_readlineb+0xe2>
 8049366:	89 c3                	mov    %eax,%ebx
 8049368:	89 4c 24 1c          	mov    %ecx,0x1c(%esp)
 804936c:	c7 44 24 10 01 00 00 	movl   $0x1,0x10(%esp)
 8049373:	00 
 8049374:	8d 78 0c             	lea    0xc(%eax),%edi
 8049377:	eb 33                	jmp    80493ac <rio_readlineb+0x58>
 8049379:	c7 44 24 08 00 20 00 	movl   $0x2000,0x8(%esp)
 8049380:	00 
 8049381:	89 7c 24 04          	mov    %edi,0x4(%esp)
 8049385:	8b 03                	mov    (%ebx),%eax
 8049387:	89 04 24             	mov    %eax,(%esp)
 804938a:	e8 d1 f3 ff ff       	call   8048760 <read@plt>
 804938f:	89 43 04             	mov    %eax,0x4(%ebx)
 8049392:	85 c0                	test   %eax,%eax
 8049394:	79 0f                	jns    80493a5 <rio_readlineb+0x51>
 8049396:	e8 e5 f4 ff ff       	call   8048880 <__errno_location@plt>
 804939b:	83 38 04             	cmpl   $0x4,(%eax)
 804939e:	74 0c                	je     80493ac <rio_readlineb+0x58>
 80493a0:	e9 a3 00 00 00       	jmp    8049448 <rio_readlineb+0xf4>
 80493a5:	85 c0                	test   %eax,%eax
 80493a7:	74 6e                	je     8049417 <rio_readlineb+0xc3>
 80493a9:	89 7b 08             	mov    %edi,0x8(%ebx)
 80493ac:	8b 73 04             	mov    0x4(%ebx),%esi
 80493af:	85 f6                	test   %esi,%esi
 80493b1:	7e c6                	jle    8049379 <rio_readlineb+0x25>
 80493b3:	85 f6                	test   %esi,%esi
 80493b5:	0f 95 c0             	setne  %al
 80493b8:	0f b6 c0             	movzbl %al,%eax
 80493bb:	89 44 24 14          	mov    %eax,0x14(%esp)
 80493bf:	8b 4b 08             	mov    0x8(%ebx),%ecx
 80493c2:	c7 44 24 0c 01 00 00 	movl   $0x1,0xc(%esp)
 80493c9:	00 
 80493ca:	89 44 24 08          	mov    %eax,0x8(%esp)
 80493ce:	89 4c 24 18          	mov    %ecx,0x18(%esp)
 80493d2:	89 4c 24 04          	mov    %ecx,0x4(%esp)
 80493d6:	8d 54 24 2f          	lea    0x2f(%esp),%edx
 80493da:	89 14 24             	mov    %edx,(%esp)
 80493dd:	e8 2e f4 ff ff       	call   8048810 <__memcpy_chk@plt>
 80493e2:	8b 4c 24 18          	mov    0x18(%esp),%ecx
 80493e6:	8b 54 24 14          	mov    0x14(%esp),%edx
 80493ea:	01 d1                	add    %edx,%ecx
 80493ec:	89 4b 08             	mov    %ecx,0x8(%ebx)
 80493ef:	29 d6                	sub    %edx,%esi
 80493f1:	89 73 04             	mov    %esi,0x4(%ebx)
 80493f4:	83 fa 01             	cmp    $0x1,%edx
 80493f7:	75 11                	jne    804940a <rio_readlineb+0xb6>
 80493f9:	83 c5 01             	add    $0x1,%ebp
 80493fc:	0f b6 44 24 2f       	movzbl 0x2f(%esp),%eax
 8049401:	88 45 ff             	mov    %al,-0x1(%ebp)
 8049404:	3c 0a                	cmp    $0xa,%al
 8049406:	75 1a                	jne    8049422 <rio_readlineb+0xce>
 8049408:	eb 34                	jmp    804943e <rio_readlineb+0xea>
 804940a:	83 7c 24 14 00       	cmpl   $0x0,0x14(%esp)
 804940f:	75 3e                	jne    804944f <rio_readlineb+0xfb>
 8049411:	8b 44 24 10          	mov    0x10(%esp),%eax
 8049415:	eb 04                	jmp    804941b <rio_readlineb+0xc7>
 8049417:	8b 44 24 10          	mov    0x10(%esp),%eax
 804941b:	83 f8 01             	cmp    $0x1,%eax
 804941e:	75 1e                	jne    804943e <rio_readlineb+0xea>
 8049420:	eb 34                	jmp    8049456 <rio_readlineb+0x102>
 8049422:	83 44 24 10 01       	addl   $0x1,0x10(%esp)
 8049427:	8b 44 24 1c          	mov    0x1c(%esp),%eax
 804942b:	39 44 24 10          	cmp    %eax,0x10(%esp)
 804942f:	74 0d                	je     804943e <rio_readlineb+0xea>
 8049431:	e9 76 ff ff ff       	jmp    80493ac <rio_readlineb+0x58>
 8049436:	c7 44 24 10 01 00 00 	movl   $0x1,0x10(%esp)
 804943d:	00 
 804943e:	c6 45 00 00          	movb   $0x0,0x0(%ebp)
 8049442:	8b 44 24 10          	mov    0x10(%esp),%eax
 8049446:	eb 13                	jmp    804945b <rio_readlineb+0x107>
 8049448:	b8 ff ff ff ff       	mov    $0xffffffff,%eax
 804944d:	eb 0c                	jmp    804945b <rio_readlineb+0x107>
 804944f:	b8 ff ff ff ff       	mov    $0xffffffff,%eax
 8049454:	eb 05                	jmp    804945b <rio_readlineb+0x107>
 8049456:	b8 00 00 00 00       	mov    $0x0,%eax
 804945b:	83 c4 3c             	add    $0x3c,%esp
 804945e:	5b                   	pop    %ebx
 804945f:	5e                   	pop    %esi
 8049460:	5f                   	pop    %edi
 8049461:	5d                   	pop    %ebp
 8049462:	c3                   	ret    

08049463 <submitr>:
 8049463:	55                   	push   %ebp
 8049464:	57                   	push   %edi
 8049465:	56                   	push   %esi
 8049466:	53                   	push   %ebx
 8049467:	81 ec 7c a0 00 00    	sub    $0xa07c,%esp
 804946d:	8b b4 24 90 a0 00 00 	mov    0xa090(%esp),%esi
 8049474:	8b 84 24 98 a0 00 00 	mov    0xa098(%esp),%eax
 804947b:	89 44 24 28          	mov    %eax,0x28(%esp)
 804947f:	8b 84 24 9c a0 00 00 	mov    0xa09c(%esp),%eax
 8049486:	89 44 24 2c          	mov    %eax,0x2c(%esp)
 804948a:	8b 84 24 a0 a0 00 00 	mov    0xa0a0(%esp),%eax
 8049491:	89 44 24 30          	mov    %eax,0x30(%esp)
 8049495:	8b 9c 24 a4 a0 00 00 	mov    0xa0a4(%esp),%ebx
 804949c:	8b 84 24 a8 a0 00 00 	mov    0xa0a8(%esp),%eax
 80494a3:	89 44 24 34          	mov    %eax,0x34(%esp)
 80494a7:	65 a1 14 00 00 00    	mov    %gs:0x14,%eax
 80494ad:	89 84 24 6c a0 00 00 	mov    %eax,0xa06c(%esp)
 80494b4:	31 c0                	xor    %eax,%eax
 80494b6:	c7 44 24 4c 00 00 00 	movl   $0x0,0x4c(%esp)
 80494bd:	00 
 80494be:	c7 44 24 08 00 00 00 	movl   $0x0,0x8(%esp)
 80494c5:	00 
 80494c6:	c7 44 24 04 01 00 00 	movl   $0x1,0x4(%esp)
 80494cd:	00 
 80494ce:	c7 04 24 02 00 00 00 	movl   $0x2,(%esp)
 80494d5:	e8 c6 f3 ff ff       	call   80488a0 <socket@plt>
 80494da:	89 c5                	mov    %eax,%ebp
 80494dc:	85 c0                	test   %eax,%eax
 80494de:	79 52                	jns    8049532 <submitr+0xcf>
 80494e0:	8b 44 24 34          	mov    0x34(%esp),%eax
 80494e4:	c7 00 45 72 72 6f    	movl   $0x6f727245,(%eax)
 80494ea:	c7 40 04 72 3a 20 43 	movl   $0x43203a72,0x4(%eax)
 80494f1:	c7 40 08 6c 69 65 6e 	movl   $0x6e65696c,0x8(%eax)
 80494f8:	c7 40 0c 74 20 75 6e 	movl   $0x6e752074,0xc(%eax)
 80494ff:	c7 40 10 61 62 6c 65 	movl   $0x656c6261,0x10(%eax)
 8049506:	c7 40 14 20 74 6f 20 	movl   $0x206f7420,0x14(%eax)
 804950d:	c7 40 18 63 72 65 61 	movl   $0x61657263,0x18(%eax)
 8049514:	c7 40 1c 74 65 20 73 	movl   $0x73206574,0x1c(%eax)
 804951b:	c7 40 20 6f 63 6b 65 	movl   $0x656b636f,0x20(%eax)
 8049522:	66 c7 40 24 74 00    	movw   $0x74,0x24(%eax)
 8049528:	b8 ff ff ff ff       	mov    $0xffffffff,%eax
 804952d:	e9 37 06 00 00       	jmp    8049b69 <submitr+0x706>
 8049532:	89 34 24             	mov    %esi,(%esp)
 8049535:	e8 86 f3 ff ff       	call   80488c0 <gethostbyname@plt>
 804953a:	85 c0                	test   %eax,%eax
 804953c:	75 6c                	jne    80495aa <submitr+0x147>
 804953e:	8b 44 24 34          	mov    0x34(%esp),%eax
 8049542:	c7 00 45 72 72 6f    	movl   $0x6f727245,(%eax)
 8049548:	c7 40 04 72 3a 20 44 	movl   $0x44203a72,0x4(%eax)
 804954f:	c7 40 08 4e 53 20 69 	movl   $0x6920534e,0x8(%eax)
 8049556:	c7 40 0c 73 20 75 6e 	movl   $0x6e752073,0xc(%eax)
 804955d:	c7 40 10 61 62 6c 65 	movl   $0x656c6261,0x10(%eax)
 8049564:	c7 40 14 20 74 6f 20 	movl   $0x206f7420,0x14(%eax)
 804956b:	c7 40 18 72 65 73 6f 	movl   $0x6f736572,0x18(%eax)
 8049572:	c7 40 1c 6c 76 65 20 	movl   $0x2065766c,0x1c(%eax)
 8049579:	c7 40 20 73 65 72 76 	movl   $0x76726573,0x20(%eax)
 8049580:	c7 40 24 65 72 20 61 	movl   $0x61207265,0x24(%eax)
 8049587:	c7 40 28 64 64 72 65 	movl   $0x65726464,0x28(%eax)
 804958e:	66 c7 40 2c 73 73    	movw   $0x7373,0x2c(%eax)
 8049594:	c6 40 2e 00          	movb   $0x0,0x2e(%eax)
 8049598:	89 2c 24             	mov    %ebp,(%esp)
 804959b:	e8 50 f3 ff ff       	call   80488f0 <close@plt>
 80495a0:	b8 ff ff ff ff       	mov    $0xffffffff,%eax
 80495a5:	e9 bf 05 00 00       	jmp    8049b69 <submitr+0x706>
 80495aa:	8d 74 24 50          	lea    0x50(%esp),%esi
 80495ae:	c7 44 24 50 00 00 00 	movl   $0x0,0x50(%esp)
 80495b5:	00 
 80495b6:	c7 44 24 54 00 00 00 	movl   $0x0,0x54(%esp)
 80495bd:	00 
 80495be:	c7 44 24 58 00 00 00 	movl   $0x0,0x58(%esp)
 80495c5:	00 
 80495c6:	c7 44 24 5c 00 00 00 	movl   $0x0,0x5c(%esp)
 80495cd:	00 
 80495ce:	66 c7 44 24 50 02 00 	movw   $0x2,0x50(%esp)
 80495d5:	c7 44 24 0c 0c 00 00 	movl   $0xc,0xc(%esp)
 80495dc:	00 
 80495dd:	8b 50 0c             	mov    0xc(%eax),%edx
 80495e0:	89 54 24 08          	mov    %edx,0x8(%esp)
 80495e4:	8b 40 10             	mov    0x10(%eax),%eax
 80495e7:	8b 00                	mov    (%eax),%eax
 80495e9:	89 44 24 04          	mov    %eax,0x4(%esp)
 80495ed:	8d 44 24 54          	lea    0x54(%esp),%eax
 80495f1:	89 04 24             	mov    %eax,(%esp)
 80495f4:	e8 07 f2 ff ff       	call   8048800 <__memmove_chk@plt>
 80495f9:	0f b7 84 24 94 a0 00 	movzwl 0xa094(%esp),%eax
 8049600:	00 
 8049601:	66 c1 c8 08          	ror    $0x8,%ax
 8049605:	66 89 44 24 52       	mov    %ax,0x52(%esp)
 804960a:	c7 44 24 08 10 00 00 	movl   $0x10,0x8(%esp)
 8049611:	00 
 8049612:	89 74 24 04          	mov    %esi,0x4(%esp)
 8049616:	89 2c 24             	mov    %ebp,(%esp)
 8049619:	e8 c2 f2 ff ff       	call   80488e0 <connect@plt>
 804961e:	85 c0                	test   %eax,%eax
 8049620:	79 5e                	jns    8049680 <submitr+0x21d>
 8049622:	8b 44 24 34          	mov    0x34(%esp),%eax
 8049626:	c7 00 45 72 72 6f    	movl   $0x6f727245,(%eax)
 804962c:	c7 40 04 72 3a 20 55 	movl   $0x55203a72,0x4(%eax)
 8049633:	c7 40 08 6e 61 62 6c 	movl   $0x6c62616e,0x8(%eax)
 804963a:	c7 40 0c 65 20 74 6f 	movl   $0x6f742065,0xc(%eax)
 8049641:	c7 40 10 20 63 6f 6e 	movl   $0x6e6f6320,0x10(%eax)
 8049648:	c7 40 14 6e 65 63 74 	movl   $0x7463656e,0x14(%eax)
 804964f:	c7 40 18 20 74 6f 20 	movl   $0x206f7420,0x18(%eax)
 8049656:	c7 40 1c 74 68 65 20 	movl   $0x20656874,0x1c(%eax)
 804965d:	c7 40 20 73 65 72 76 	movl   $0x76726573,0x20(%eax)
 8049664:	66 c7 40 24 65 72    	movw   $0x7265,0x24(%eax)
 804966a:	c6 40 26 00          	movb   $0x0,0x26(%eax)
 804966e:	89 2c 24             	mov    %ebp,(%esp)
 8049671:	e8 7a f2 ff ff       	call   80488f0 <close@plt>
 8049676:	b8 ff ff ff ff       	mov    $0xffffffff,%eax
 804967b:	e9 e9 04 00 00       	jmp    8049b69 <submitr+0x706>
 8049680:	ba ff ff ff ff       	mov    $0xffffffff,%edx
 8049685:	89 df                	mov    %ebx,%edi
 8049687:	b8 00 00 00 00       	mov    $0x0,%eax
 804968c:	89 d1                	mov    %edx,%ecx
 804968e:	f2 ae                	repnz scas %es:(%edi),%al
 8049690:	f7 d1                	not    %ecx
 8049692:	89 ce                	mov    %ecx,%esi
 8049694:	8b 7c 24 28          	mov    0x28(%esp),%edi
 8049698:	89 d1                	mov    %edx,%ecx
 804969a:	f2 ae                	repnz scas %es:(%edi),%al
 804969c:	89 4c 24 38          	mov    %ecx,0x38(%esp)
 80496a0:	8b 7c 24 2c          	mov    0x2c(%esp),%edi
 80496a4:	89 d1                	mov    %edx,%ecx
 80496a6:	f2 ae                	repnz scas %es:(%edi),%al
 80496a8:	f7 d1                	not    %ecx
 80496aa:	89 4c 24 3c          	mov    %ecx,0x3c(%esp)
 80496ae:	8b 7c 24 30          	mov    0x30(%esp),%edi
 80496b2:	89 d1                	mov    %edx,%ecx
 80496b4:	f2 ae                	repnz scas %es:(%edi),%al
 80496b6:	8b 44 24 3c          	mov    0x3c(%esp),%eax
 80496ba:	2b 44 24 38          	sub    0x38(%esp),%eax
 80496be:	29 c8                	sub    %ecx,%eax
 80496c0:	89 c2                	mov    %eax,%edx
 80496c2:	8d 44 76 fd          	lea    -0x3(%esi,%esi,2),%eax
 80496c6:	8d 44 02 7b          	lea    0x7b(%edx,%eax,1),%eax
 80496ca:	3d 00 20 00 00       	cmp    $0x2000,%eax
 80496cf:	76 77                	jbe    8049748 <submitr+0x2e5>
 80496d1:	8b 44 24 34          	mov    0x34(%esp),%eax
 80496d5:	c7 00 45 72 72 6f    	movl   $0x6f727245,(%eax)
 80496db:	c7 40 04 72 3a 20 52 	movl   $0x52203a72,0x4(%eax)
 80496e2:	c7 40 08 65 73 75 6c 	movl   $0x6c757365,0x8(%eax)
 80496e9:	c7 40 0c 74 20 73 74 	movl   $0x74732074,0xc(%eax)
 80496f0:	c7 40 10 72 69 6e 67 	movl   $0x676e6972,0x10(%eax)
 80496f7:	c7 40 14 20 74 6f 6f 	movl   $0x6f6f7420,0x14(%eax)
 80496fe:	c7 40 18 20 6c 61 72 	movl   $0x72616c20,0x18(%eax)
 8049705:	c7 40 1c 67 65 2e 20 	movl   $0x202e6567,0x1c(%eax)
 804970c:	c7 40 20 49 6e 63 72 	movl   $0x72636e49,0x20(%eax)
 8049713:	c7 40 24 65 61 73 65 	movl   $0x65736165,0x24(%eax)
 804971a:	c7 40 28 20 53 55 42 	movl   $0x42555320,0x28(%eax)
 8049721:	c7 40 2c 4d 49 54 52 	movl   $0x5254494d,0x2c(%eax)
 8049728:	c7 40 30 5f 4d 41 58 	movl   $0x58414d5f,0x30(%eax)
 804972f:	c7 40 34 42 55 46 00 	movl   $0x465542,0x34(%eax)
 8049736:	89 2c 24             	mov    %ebp,(%esp)
 8049739:	e8 b2 f1 ff ff       	call   80488f0 <close@plt>
 804973e:	b8 ff ff ff ff       	mov    $0xffffffff,%eax
 8049743:	e9 21 04 00 00       	jmp    8049b69 <submitr+0x706>
 8049748:	8d 94 24 60 20 00 00 	lea    0x2060(%esp),%edx
 804974f:	b9 00 08 00 00       	mov    $0x800,%ecx
 8049754:	b8 00 00 00 00       	mov    $0x0,%eax
 8049759:	89 d7                	mov    %edx,%edi
 804975b:	f3 ab                	rep stos %eax,%es:(%edi)
 804975d:	89 df                	mov    %ebx,%edi
 804975f:	b9 ff ff ff ff       	mov    $0xffffffff,%ecx
 8049764:	f2 ae                	repnz scas %es:(%edi),%al
 8049766:	f7 d1                	not    %ecx
 8049768:	83 e9 01             	sub    $0x1,%ecx
 804976b:	89 ce                	mov    %ecx,%esi
 804976d:	0f 84 0f 04 00 00    	je     8049b82 <submitr+0x71f>
 8049773:	89 d7                	mov    %edx,%edi
 8049775:	0f b6 03             	movzbl (%ebx),%eax
 8049778:	3c 2a                	cmp    $0x2a,%al
 804977a:	74 21                	je     804979d <submitr+0x33a>
 804977c:	8d 50 d3             	lea    -0x2d(%eax),%edx
 804977f:	80 fa 01             	cmp    $0x1,%dl
 8049782:	76 19                	jbe    804979d <submitr+0x33a>
 8049784:	3c 5f                	cmp    $0x5f,%al
 8049786:	74 15                	je     804979d <submitr+0x33a>
 8049788:	8d 50 d0             	lea    -0x30(%eax),%edx
 804978b:	80 fa 09             	cmp    $0x9,%dl
 804978e:	76 0d                	jbe    804979d <submitr+0x33a>
 8049790:	89 c2                	mov    %eax,%edx
 8049792:	83 e2 df             	and    $0xffffffdf,%edx
 8049795:	83 ea 41             	sub    $0x41,%edx
 8049798:	80 fa 19             	cmp    $0x19,%dl
 804979b:	77 07                	ja     80497a4 <submitr+0x341>
 804979d:	8d 57 01             	lea    0x1(%edi),%edx
 80497a0:	88 07                	mov    %al,(%edi)
 80497a2:	eb 6d                	jmp    8049811 <submitr+0x3ae>
 80497a4:	3c 20                	cmp    $0x20,%al
 80497a6:	75 08                	jne    80497b0 <submitr+0x34d>
 80497a8:	8d 57 01             	lea    0x1(%edi),%edx
 80497ab:	c6 07 2b             	movb   $0x2b,(%edi)
 80497ae:	eb 61                	jmp    8049811 <submitr+0x3ae>
 80497b0:	8d 50 e0             	lea    -0x20(%eax),%edx
 80497b3:	80 fa 5f             	cmp    $0x5f,%dl
 80497b6:	76 08                	jbe    80497c0 <submitr+0x35d>
 80497b8:	3c 09                	cmp    $0x9,%al
 80497ba:	0f 85 2d 04 00 00    	jne    8049bed <submitr+0x78a>
 80497c0:	0f b6 c0             	movzbl %al,%eax
 80497c3:	89 44 24 10          	mov    %eax,0x10(%esp)
 80497c7:	c7 44 24 0c 84 a4 04 	movl   $0x804a484,0xc(%esp)
 80497ce:	08 
 80497cf:	c7 44 24 08 08 00 00 	movl   $0x8,0x8(%esp)
 80497d6:	00 
 80497d7:	c7 44 24 04 01 00 00 	movl   $0x1,0x4(%esp)
 80497de:	00 
 80497df:	8d 84 24 60 80 00 00 	lea    0x8060(%esp),%eax
 80497e6:	89 04 24             	mov    %eax,(%esp)
 80497e9:	e8 22 f1 ff ff       	call   8048910 <__sprintf_chk@plt>
 80497ee:	0f b6 84 24 60 80 00 	movzbl 0x8060(%esp),%eax
 80497f5:	00 
 80497f6:	88 07                	mov    %al,(%edi)
 80497f8:	0f b6 84 24 61 80 00 	movzbl 0x8061(%esp),%eax
 80497ff:	00 
 8049800:	88 47 01             	mov    %al,0x1(%edi)
 8049803:	8d 57 03             	lea    0x3(%edi),%edx
 8049806:	0f b6 84 24 62 80 00 	movzbl 0x8062(%esp),%eax
 804980d:	00 
 804980e:	88 47 02             	mov    %al,0x2(%edi)
 8049811:	83 c3 01             	add    $0x1,%ebx
 8049814:	83 ee 01             	sub    $0x1,%esi
 8049817:	0f 84 65 03 00 00    	je     8049b82 <submitr+0x71f>
 804981d:	89 d7                	mov    %edx,%edi
 804981f:	e9 51 ff ff ff       	jmp    8049775 <submitr+0x312>
 8049824:	89 5c 24 08          	mov    %ebx,0x8(%esp)
 8049828:	89 74 24 04          	mov    %esi,0x4(%esp)
 804982c:	89 2c 24             	mov    %ebp,(%esp)
 804982f:	e8 1c f0 ff ff       	call   8048850 <write@plt>
 8049834:	85 c0                	test   %eax,%eax
 8049836:	7f 0f                	jg     8049847 <submitr+0x3e4>
 8049838:	e8 43 f0 ff ff       	call   8048880 <__errno_location@plt>
 804983d:	83 38 04             	cmpl   $0x4,(%eax)
 8049840:	75 0f                	jne    8049851 <submitr+0x3ee>
 8049842:	b8 00 00 00 00       	mov    $0x0,%eax
 8049847:	01 c6                	add    %eax,%esi
 8049849:	29 c3                	sub    %eax,%ebx
 804984b:	75 d7                	jne    8049824 <submitr+0x3c1>
 804984d:	85 ff                	test   %edi,%edi
 804984f:	79 62                	jns    80498b3 <submitr+0x450>
 8049851:	8b 44 24 34          	mov    0x34(%esp),%eax
 8049855:	c7 00 45 72 72 6f    	movl   $0x6f727245,(%eax)
 804985b:	c7 40 04 72 3a 20 43 	movl   $0x43203a72,0x4(%eax)
 8049862:	c7 40 08 6c 69 65 6e 	movl   $0x6e65696c,0x8(%eax)
 8049869:	c7 40 0c 74 20 75 6e 	movl   $0x6e752074,0xc(%eax)
 8049870:	c7 40 10 61 62 6c 65 	movl   $0x656c6261,0x10(%eax)
 8049877:	c7 40 14 20 74 6f 20 	movl   $0x206f7420,0x14(%eax)
 804987e:	c7 40 18 77 72 69 74 	movl   $0x74697277,0x18(%eax)
 8049885:	c7 40 1c 65 20 74 6f 	movl   $0x6f742065,0x1c(%eax)
 804988c:	c7 40 20 20 74 68 65 	movl   $0x65687420,0x20(%eax)
 8049893:	c7 40 24 20 73 65 72 	movl   $0x72657320,0x24(%eax)
 804989a:	c7 40 28 76 65 72 00 	movl   $0x726576,0x28(%eax)
 80498a1:	89 2c 24             	mov    %ebp,(%esp)
 80498a4:	e8 47 f0 ff ff       	call   80488f0 <close@plt>
 80498a9:	b8 ff ff ff ff       	mov    $0xffffffff,%eax
 80498ae:	e9 b6 02 00 00       	jmp    8049b69 <submitr+0x706>
 80498b3:	89 ac 24 60 80 00 00 	mov    %ebp,0x8060(%esp)
 80498ba:	c7 84 24 64 80 00 00 	movl   $0x0,0x8064(%esp)
 80498c1:	00 00 00 00 
 80498c5:	8d 84 24 6c 80 00 00 	lea    0x806c(%esp),%eax
 80498cc:	89 84 24 68 80 00 00 	mov    %eax,0x8068(%esp)
 80498d3:	b9 00 20 00 00       	mov    $0x2000,%ecx
 80498d8:	8d 54 24 60          	lea    0x60(%esp),%edx
 80498dc:	8d 84 24 60 80 00 00 	lea    0x8060(%esp),%eax
 80498e3:	e8 6c fa ff ff       	call   8049354 <rio_readlineb>
 80498e8:	85 c0                	test   %eax,%eax
 80498ea:	7f 76                	jg     8049962 <submitr+0x4ff>
 80498ec:	8b 44 24 34          	mov    0x34(%esp),%eax
 80498f0:	c7 00 45 72 72 6f    	movl   $0x6f727245,(%eax)
 80498f6:	c7 40 04 72 3a 20 43 	movl   $0x43203a72,0x4(%eax)
 80498fd:	c7 40 08 6c 69 65 6e 	movl   $0x6e65696c,0x8(%eax)
 8049904:	c7 40 0c 74 20 75 6e 	movl   $0x6e752074,0xc(%eax)
 804990b:	c7 40 10 61 62 6c 65 	movl   $0x656c6261,0x10(%eax)
 8049912:	c7 40 14 20 74 6f 20 	movl   $0x206f7420,0x14(%eax)
 8049919:	c7 40 18 72 65 61 64 	movl   $0x64616572,0x18(%eax)
 8049920:	c7 40 1c 20 66 69 72 	movl   $0x72696620,0x1c(%eax)
 8049927:	c7 40 20 73 74 20 68 	movl   $0x68207473,0x20(%eax)
 804992e:	c7 40 24 65 61 64 65 	movl   $0x65646165,0x24(%eax)
 8049935:	c7 40 28 72 20 66 72 	movl   $0x72662072,0x28(%eax)
 804993c:	c7 40 2c 6f 6d 20 73 	movl   $0x73206d6f,0x2c(%eax)
 8049943:	c7 40 30 65 72 76 65 	movl   $0x65767265,0x30(%eax)
 804994a:	66 c7 40 34 72 00    	movw   $0x72,0x34(%eax)
 8049950:	89 2c 24             	mov    %ebp,(%esp)
 8049953:	e8 98 ef ff ff       	call   80488f0 <close@plt>
 8049958:	b8 ff ff ff ff       	mov    $0xffffffff,%eax
 804995d:	e9 07 02 00 00       	jmp    8049b69 <submitr+0x706>
 8049962:	8d 84 24 60 60 00 00 	lea    0x6060(%esp),%eax
 8049969:	89 44 24 10          	mov    %eax,0x10(%esp)
 804996d:	8d 44 24 4c          	lea    0x4c(%esp),%eax
 8049971:	89 44 24 0c          	mov    %eax,0xc(%esp)
 8049975:	8d 84 24 60 40 00 00 	lea    0x4060(%esp),%eax
 804997c:	89 44 24 08          	mov    %eax,0x8(%esp)
 8049980:	c7 44 24 04 8b a4 04 	movl   $0x804a48b,0x4(%esp)
 8049987:	08 
 8049988:	8d 44 24 60          	lea    0x60(%esp),%eax
 804998c:	89 04 24             	mov    %eax,(%esp)
 804998f:	e8 cc ee ff ff       	call   8048860 <__isoc99_sscanf@plt>
 8049994:	8b 44 24 4c          	mov    0x4c(%esp),%eax
 8049998:	3d c8 00 00 00       	cmp    $0xc8,%eax
 804999d:	0f 84 cb 00 00 00    	je     8049a6e <submitr+0x60b>
 80499a3:	8d 94 24 60 60 00 00 	lea    0x6060(%esp),%edx
 80499aa:	89 54 24 14          	mov    %edx,0x14(%esp)
 80499ae:	89 44 24 10          	mov    %eax,0x10(%esp)
 80499b2:	c7 44 24 0c 9c a3 04 	movl   $0x804a39c,0xc(%esp)
 80499b9:	08 
 80499ba:	c7 44 24 08 ff ff ff 	movl   $0xffffffff,0x8(%esp)
 80499c1:	ff 
 80499c2:	c7 44 24 04 01 00 00 	movl   $0x1,0x4(%esp)
 80499c9:	00 
 80499ca:	8b 44 24 34          	mov    0x34(%esp),%eax
 80499ce:	89 04 24             	mov    %eax,(%esp)
 80499d1:	e8 3a ef ff ff       	call   8048910 <__sprintf_chk@plt>
 80499d6:	89 2c 24             	mov    %ebp,(%esp)
 80499d9:	e8 12 ef ff ff       	call   80488f0 <close@plt>
 80499de:	b8 ff ff ff ff       	mov    $0xffffffff,%eax
 80499e3:	e9 81 01 00 00       	jmp    8049b69 <submitr+0x706>
 80499e8:	b9 00 20 00 00       	mov    $0x2000,%ecx
 80499ed:	8d 54 24 60          	lea    0x60(%esp),%edx
 80499f1:	8d 84 24 60 80 00 00 	lea    0x8060(%esp),%eax
 80499f8:	e8 57 f9 ff ff       	call   8049354 <rio_readlineb>
 80499fd:	85 c0                	test   %eax,%eax
 80499ff:	7f 6d                	jg     8049a6e <submitr+0x60b>
 8049a01:	8b 44 24 34          	mov    0x34(%esp),%eax
 8049a05:	c7 00 45 72 72 6f    	movl   $0x6f727245,(%eax)
 8049a0b:	c7 40 04 72 3a 20 43 	movl   $0x43203a72,0x4(%eax)
 8049a12:	c7 40 08 6c 69 65 6e 	movl   $0x6e65696c,0x8(%eax)
 8049a19:	c7 40 0c 74 20 75 6e 	movl   $0x6e752074,0xc(%eax)
 8049a20:	c7 40 10 61 62 6c 65 	movl   $0x656c6261,0x10(%eax)
 8049a27:	c7 40 14 20 74 6f 20 	movl   $0x206f7420,0x14(%eax)
 8049a2e:	c7 40 18 72 65 61 64 	movl   $0x64616572,0x18(%eax)
 8049a35:	c7 40 1c 20 68 65 61 	movl   $0x61656820,0x1c(%eax)
 8049a3c:	c7 40 20 64 65 72 73 	movl   $0x73726564,0x20(%eax)
 8049a43:	c7 40 24 20 66 72 6f 	movl   $0x6f726620,0x24(%eax)
 8049a4a:	c7 40 28 6d 20 73 65 	movl   $0x6573206d,0x28(%eax)
 8049a51:	c7 40 2c 72 76 65 72 	movl   $0x72657672,0x2c(%eax)
 8049a58:	c6 40 30 00          	movb   $0x0,0x30(%eax)
 8049a5c:	89 2c 24             	mov    %ebp,(%esp)
 8049a5f:	e8 8c ee ff ff       	call   80488f0 <close@plt>
 8049a64:	b8 ff ff ff ff       	mov    $0xffffffff,%eax
 8049a69:	e9 fb 00 00 00       	jmp    8049b69 <submitr+0x706>
 8049a6e:	80 7c 24 60 0d       	cmpb   $0xd,0x60(%esp)
 8049a73:	0f 85 6f ff ff ff    	jne    80499e8 <submitr+0x585>
 8049a79:	80 7c 24 61 0a       	cmpb   $0xa,0x61(%esp)
 8049a7e:	0f 85 64 ff ff ff    	jne    80499e8 <submitr+0x585>
 8049a84:	80 7c 24 62 00       	cmpb   $0x0,0x62(%esp)
 8049a89:	0f 85 59 ff ff ff    	jne    80499e8 <submitr+0x585>
 8049a8f:	b9 00 20 00 00       	mov    $0x2000,%ecx
 8049a94:	8d 54 24 60          	lea    0x60(%esp),%edx
 8049a98:	8d 84 24 60 80 00 00 	lea    0x8060(%esp),%eax
 8049a9f:	e8 b0 f8 ff ff       	call   8049354 <rio_readlineb>
 8049aa4:	85 c0                	test   %eax,%eax
 8049aa6:	7f 74                	jg     8049b1c <submitr+0x6b9>
 8049aa8:	8b 44 24 34          	mov    0x34(%esp),%eax
 8049aac:	c7 00 45 72 72 6f    	movl   $0x6f727245,(%eax)
 8049ab2:	c7 40 04 72 3a 20 43 	movl   $0x43203a72,0x4(%eax)
 8049ab9:	c7 40 08 6c 69 65 6e 	movl   $0x6e65696c,0x8(%eax)
 8049ac0:	c7 40 0c 74 20 75 6e 	movl   $0x6e752074,0xc(%eax)
 8049ac7:	c7 40 10 61 62 6c 65 	movl   $0x656c6261,0x10(%eax)
 8049ace:	c7 40 14 20 74 6f 20 	movl   $0x206f7420,0x14(%eax)
 8049ad5:	c7 40 18 72 65 61 64 	movl   $0x64616572,0x18(%eax)
 8049adc:	c7 40 1c 20 73 74 61 	movl   $0x61747320,0x1c(%eax)
 8049ae3:	c7 40 20 74 75 73 20 	movl   $0x20737574,0x20(%eax)
 8049aea:	c7 40 24 6d 65 73 73 	movl   $0x7373656d,0x24(%eax)
 8049af1:	c7 40 28 61 67 65 20 	movl   $0x20656761,0x28(%eax)
 8049af8:	c7 40 2c 66 72 6f 6d 	movl   $0x6d6f7266,0x2c(%eax)
 8049aff:	c7 40 30 20 73 65 72 	movl   $0x72657320,0x30(%eax)
 8049b06:	c7 40 34 76 65 72 00 	movl   $0x726576,0x34(%eax)
 8049b0d:	89 2c 24             	mov    %ebp,(%esp)
 8049b10:	e8 db ed ff ff       	call   80488f0 <close@plt>
 8049b15:	b8 ff ff ff ff       	mov    $0xffffffff,%eax
 8049b1a:	eb 4d                	jmp    8049b69 <submitr+0x706>
 8049b1c:	8d 44 24 60          	lea    0x60(%esp),%eax
 8049b20:	89 44 24 04          	mov    %eax,0x4(%esp)
 8049b24:	8b 74 24 34          	mov    0x34(%esp),%esi
 8049b28:	89 34 24             	mov    %esi,(%esp)
 8049b2b:	e8 a0 ec ff ff       	call   80487d0 <strcpy@plt>
 8049b30:	89 2c 24             	mov    %ebp,(%esp)
 8049b33:	e8 b8 ed ff ff       	call   80488f0 <close@plt>
 8049b38:	0f b6 06             	movzbl (%esi),%eax
 8049b3b:	ba 4f 00 00 00       	mov    $0x4f,%edx
 8049b40:	29 c2                	sub    %eax,%edx
 8049b42:	75 1b                	jne    8049b5f <submitr+0x6fc>
 8049b44:	8b 44 24 34          	mov    0x34(%esp),%eax
 8049b48:	0f b6 40 01          	movzbl 0x1(%eax),%eax
 8049b4c:	ba 4b 00 00 00       	mov    $0x4b,%edx
 8049b51:	29 c2                	sub    %eax,%edx
 8049b53:	75 0a                	jne    8049b5f <submitr+0x6fc>
 8049b55:	8b 44 24 34          	mov    0x34(%esp),%eax
 8049b59:	0f b6 50 02          	movzbl 0x2(%eax),%edx
 8049b5d:	f7 da                	neg    %edx
 8049b5f:	85 d2                	test   %edx,%edx
 8049b61:	0f 95 c0             	setne  %al
 8049b64:	0f b6 c0             	movzbl %al,%eax
 8049b67:	f7 d8                	neg    %eax
 8049b69:	8b 8c 24 6c a0 00 00 	mov    0xa06c(%esp),%ecx
 8049b70:	65 33 0d 14 00 00 00 	xor    %gs:0x14,%ecx
 8049b77:	0f 84 ef 00 00 00    	je     8049c6c <submitr+0x809>
 8049b7d:	e9 e5 00 00 00       	jmp    8049c67 <submitr+0x804>
 8049b82:	8d 84 24 60 20 00 00 	lea    0x2060(%esp),%eax
 8049b89:	89 44 24 1c          	mov    %eax,0x1c(%esp)
 8049b8d:	8b 44 24 30          	mov    0x30(%esp),%eax
 8049b91:	89 44 24 18          	mov    %eax,0x18(%esp)
 8049b95:	8b 44 24 2c          	mov    0x2c(%esp),%eax
 8049b99:	89 44 24 14          	mov    %eax,0x14(%esp)
 8049b9d:	8b 44 24 28          	mov    0x28(%esp),%eax
 8049ba1:	89 44 24 10          	mov    %eax,0x10(%esp)
 8049ba5:	c7 44 24 0c cc a3 04 	movl   $0x804a3cc,0xc(%esp)
 8049bac:	08 
 8049bad:	c7 44 24 08 00 20 00 	movl   $0x2000,0x8(%esp)
 8049bb4:	00 
 8049bb5:	c7 44 24 04 01 00 00 	movl   $0x1,0x4(%esp)
 8049bbc:	00 
 8049bbd:	8d 7c 24 60          	lea    0x60(%esp),%edi
 8049bc1:	89 3c 24             	mov    %edi,(%esp)
 8049bc4:	e8 47 ed ff ff       	call   8048910 <__sprintf_chk@plt>
 8049bc9:	b8 00 00 00 00       	mov    $0x0,%eax
 8049bce:	b9 ff ff ff ff       	mov    $0xffffffff,%ecx
 8049bd3:	f2 ae                	repnz scas %es:(%edi),%al
 8049bd5:	f7 d1                	not    %ecx
 8049bd7:	83 e9 01             	sub    $0x1,%ecx
 8049bda:	89 cf                	mov    %ecx,%edi
 8049bdc:	0f 84 d1 fc ff ff    	je     80498b3 <submitr+0x450>
 8049be2:	89 cb                	mov    %ecx,%ebx
 8049be4:	8d 74 24 60          	lea    0x60(%esp),%esi
 8049be8:	e9 37 fc ff ff       	jmp    8049824 <submitr+0x3c1>
 8049bed:	8b 4c 24 34          	mov    0x34(%esp),%ecx
 8049bf1:	89 cf                	mov    %ecx,%edi
 8049bf3:	be 18 a4 04 08       	mov    $0x804a418,%esi
 8049bf8:	b8 43 00 00 00       	mov    $0x43,%eax
 8049bfd:	f6 c1 01             	test   $0x1,%cl
 8049c00:	74 16                	je     8049c18 <submitr+0x7b5>
 8049c02:	0f b6 05 18 a4 04 08 	movzbl 0x804a418,%eax
 8049c09:	88 01                	mov    %al,(%ecx)
 8049c0b:	8d 79 01             	lea    0x1(%ecx),%edi
 8049c0e:	be 19 a4 04 08       	mov    $0x804a419,%esi
 8049c13:	b8 42 00 00 00       	mov    $0x42,%eax
 8049c18:	f7 c7 02 00 00 00    	test   $0x2,%edi
 8049c1e:	74 0f                	je     8049c2f <submitr+0x7cc>
 8049c20:	0f b7 16             	movzwl (%esi),%edx
 8049c23:	66 89 17             	mov    %dx,(%edi)
 8049c26:	83 c7 02             	add    $0x2,%edi
 8049c29:	83 c6 02             	add    $0x2,%esi
 8049c2c:	83 e8 02             	sub    $0x2,%eax
 8049c2f:	89 c1                	mov    %eax,%ecx
 8049c31:	c1 e9 02             	shr    $0x2,%ecx
 8049c34:	f3 a5                	rep movsl %ds:(%esi),%es:(%edi)
 8049c36:	ba 00 00 00 00       	mov    $0x0,%edx
 8049c3b:	a8 02                	test   $0x2,%al
 8049c3d:	74 0b                	je     8049c4a <submitr+0x7e7>
 8049c3f:	0f b7 16             	movzwl (%esi),%edx
 8049c42:	66 89 17             	mov    %dx,(%edi)
 8049c45:	ba 02 00 00 00       	mov    $0x2,%edx
 8049c4a:	a8 01                	test   $0x1,%al
 8049c4c:	74 07                	je     8049c55 <submitr+0x7f2>
 8049c4e:	0f b6 04 16          	movzbl (%esi,%edx,1),%eax
 8049c52:	88 04 17             	mov    %al,(%edi,%edx,1)
 8049c55:	89 2c 24             	mov    %ebp,(%esp)
 8049c58:	e8 93 ec ff ff       	call   80488f0 <close@plt>
 8049c5d:	b8 ff ff ff ff       	mov    $0xffffffff,%eax
 8049c62:	e9 02 ff ff ff       	jmp    8049b69 <submitr+0x706>
 8049c67:	e8 54 eb ff ff       	call   80487c0 <__stack_chk_fail@plt>
 8049c6c:	81 c4 7c a0 00 00    	add    $0xa07c,%esp
 8049c72:	5b                   	pop    %ebx
 8049c73:	5e                   	pop    %esi
 8049c74:	5f                   	pop    %edi
 8049c75:	5d                   	pop    %ebp
 8049c76:	c3                   	ret    

08049c77 <init_timeout>:
 8049c77:	53                   	push   %ebx
 8049c78:	83 ec 18             	sub    $0x18,%esp
 8049c7b:	8b 5c 24 20          	mov    0x20(%esp),%ebx
 8049c7f:	85 db                	test   %ebx,%ebx
 8049c81:	74 26                	je     8049ca9 <init_timeout+0x32>
 8049c83:	c7 44 24 04 20 93 04 	movl   $0x8049320,0x4(%esp)
 8049c8a:	08 
 8049c8b:	c7 04 24 0e 00 00 00 	movl   $0xe,(%esp)
 8049c92:	e8 f9 ea ff ff       	call   8048790 <signal@plt>
 8049c97:	85 db                	test   %ebx,%ebx
 8049c99:	b8 00 00 00 00       	mov    $0x0,%eax
 8049c9e:	0f 48 d8             	cmovs  %eax,%ebx
 8049ca1:	89 1c 24             	mov    %ebx,(%esp)
 8049ca4:	e8 07 eb ff ff       	call   80487b0 <alarm@plt>
 8049ca9:	83 c4 18             	add    $0x18,%esp
 8049cac:	5b                   	pop    %ebx
 8049cad:	c3                   	ret    

08049cae <init_driver>:
 8049cae:	57                   	push   %edi
 8049caf:	56                   	push   %esi
 8049cb0:	53                   	push   %ebx
 8049cb1:	83 ec 40             	sub    $0x40,%esp
 8049cb4:	8b 74 24 50          	mov    0x50(%esp),%esi
 8049cb8:	65 a1 14 00 00 00    	mov    %gs:0x14,%eax
 8049cbe:	89 44 24 3c          	mov    %eax,0x3c(%esp)
 8049cc2:	31 c0                	xor    %eax,%eax
 8049cc4:	c7 44 24 04 01 00 00 	movl   $0x1,0x4(%esp)
 8049ccb:	00 
 8049ccc:	c7 04 24 0d 00 00 00 	movl   $0xd,(%esp)
 8049cd3:	e8 b8 ea ff ff       	call   8048790 <signal@plt>
 8049cd8:	c7 44 24 04 01 00 00 	movl   $0x1,0x4(%esp)
 8049cdf:	00 
 8049ce0:	c7 04 24 1d 00 00 00 	movl   $0x1d,(%esp)
 8049ce7:	e8 a4 ea ff ff       	call   8048790 <signal@plt>
 8049cec:	c7 44 24 04 01 00 00 	movl   $0x1,0x4(%esp)
 8049cf3:	00 
 8049cf4:	c7 04 24 1d 00 00 00 	movl   $0x1d,(%esp)
 8049cfb:	e8 90 ea ff ff       	call   8048790 <signal@plt>
 8049d00:	c7 44 24 08 00 00 00 	movl   $0x0,0x8(%esp)
 8049d07:	00 
 8049d08:	c7 44 24 04 01 00 00 	movl   $0x1,0x4(%esp)
 8049d0f:	00 
 8049d10:	c7 04 24 02 00 00 00 	movl   $0x2,(%esp)
 8049d17:	e8 84 eb ff ff       	call   80488a0 <socket@plt>
 8049d1c:	89 c3                	mov    %eax,%ebx
 8049d1e:	85 c0                	test   %eax,%eax
 8049d20:	79 4e                	jns    8049d70 <init_driver+0xc2>
 8049d22:	c7 06 45 72 72 6f    	movl   $0x6f727245,(%esi)
 8049d28:	c7 46 04 72 3a 20 43 	movl   $0x43203a72,0x4(%esi)
 8049d2f:	c7 46 08 6c 69 65 6e 	movl   $0x6e65696c,0x8(%esi)
 8049d36:	c7 46 0c 74 20 75 6e 	movl   $0x6e752074,0xc(%esi)
 8049d3d:	c7 46 10 61 62 6c 65 	movl   $0x656c6261,0x10(%esi)
 8049d44:	c7 46 14 20 74 6f 20 	movl   $0x206f7420,0x14(%esi)
 8049d4b:	c7 46 18 63 72 65 61 	movl   $0x61657263,0x18(%esi)
 8049d52:	c7 46 1c 74 65 20 73 	movl   $0x73206574,0x1c(%esi)
 8049d59:	c7 46 20 6f 63 6b 65 	movl   $0x656b636f,0x20(%esi)
 8049d60:	66 c7 46 24 74 00    	movw   $0x74,0x24(%esi)
 8049d66:	b8 ff ff ff ff       	mov    $0xffffffff,%eax
 8049d6b:	e9 33 01 00 00       	jmp    8049ea3 <init_driver+0x1f5>
 8049d70:	c7 04 24 9c a4 04 08 	movl   $0x804a49c,(%esp)
 8049d77:	e8 44 eb ff ff       	call   80488c0 <gethostbyname@plt>
 8049d7c:	85 c0                	test   %eax,%eax
 8049d7e:	75 68                	jne    8049de8 <init_driver+0x13a>
 8049d80:	c7 06 45 72 72 6f    	movl   $0x6f727245,(%esi)
 8049d86:	c7 46 04 72 3a 20 44 	movl   $0x44203a72,0x4(%esi)
 8049d8d:	c7 46 08 4e 53 20 69 	movl   $0x6920534e,0x8(%esi)
 8049d94:	c7 46 0c 73 20 75 6e 	movl   $0x6e752073,0xc(%esi)
 8049d9b:	c7 46 10 61 62 6c 65 	movl   $0x656c6261,0x10(%esi)
 8049da2:	c7 46 14 20 74 6f 20 	movl   $0x206f7420,0x14(%esi)
 8049da9:	c7 46 18 72 65 73 6f 	movl   $0x6f736572,0x18(%esi)
 8049db0:	c7 46 1c 6c 76 65 20 	movl   $0x2065766c,0x1c(%esi)
 8049db7:	c7 46 20 73 65 72 76 	movl   $0x76726573,0x20(%esi)
 8049dbe:	c7 46 24 65 72 20 61 	movl   $0x61207265,0x24(%esi)
 8049dc5:	c7 46 28 64 64 72 65 	movl   $0x65726464,0x28(%esi)
 8049dcc:	66 c7 46 2c 73 73    	movw   $0x7373,0x2c(%esi)
 8049dd2:	c6 46 2e 00          	movb   $0x0,0x2e(%esi)
 8049dd6:	89 1c 24             	mov    %ebx,(%esp)
 8049dd9:	e8 12 eb ff ff       	call   80488f0 <close@plt>
 8049dde:	b8 ff ff ff ff       	mov    $0xffffffff,%eax
 8049de3:	e9 bb 00 00 00       	jmp    8049ea3 <init_driver+0x1f5>
 8049de8:	8d 7c 24 2c          	lea    0x2c(%esp),%edi
 8049dec:	c7 44 24 2c 00 00 00 	movl   $0x0,0x2c(%esp)
 8049df3:	00 
 8049df4:	c7 44 24 30 00 00 00 	movl   $0x0,0x30(%esp)
 8049dfb:	00 
 8049dfc:	c7 44 24 34 00 00 00 	movl   $0x0,0x34(%esp)
 8049e03:	00 
 8049e04:	c7 44 24 38 00 00 00 	movl   $0x0,0x38(%esp)
 8049e0b:	00 
 8049e0c:	66 c7 44 24 2c 02 00 	movw   $0x2,0x2c(%esp)
 8049e13:	c7 44 24 0c 0c 00 00 	movl   $0xc,0xc(%esp)
 8049e1a:	00 
 8049e1b:	8b 50 0c             	mov    0xc(%eax),%edx
 8049e1e:	89 54 24 08          	mov    %edx,0x8(%esp)
 8049e22:	8b 40 10             	mov    0x10(%eax),%eax
 8049e25:	8b 00                	mov    (%eax),%eax
 8049e27:	89 44 24 04          	mov    %eax,0x4(%esp)
 8049e2b:	8d 44 24 30          	lea    0x30(%esp),%eax
 8049e2f:	89 04 24             	mov    %eax,(%esp)
 8049e32:	e8 c9 e9 ff ff       	call   8048800 <__memmove_chk@plt>
 8049e37:	66 c7 44 24 2e 3b 6e 	movw   $0x6e3b,0x2e(%esp)
 8049e3e:	c7 44 24 08 10 00 00 	movl   $0x10,0x8(%esp)
 8049e45:	00 
 8049e46:	89 7c 24 04          	mov    %edi,0x4(%esp)
 8049e4a:	89 1c 24             	mov    %ebx,(%esp)
 8049e4d:	e8 8e ea ff ff       	call   80488e0 <connect@plt>
 8049e52:	85 c0                	test   %eax,%eax
 8049e54:	79 37                	jns    8049e8d <init_driver+0x1df>
 8049e56:	c7 44 24 10 9c a4 04 	movl   $0x804a49c,0x10(%esp)
 8049e5d:	08 
 8049e5e:	c7 44 24 0c 5c a4 04 	movl   $0x804a45c,0xc(%esp)
 8049e65:	08 
 8049e66:	c7 44 24 08 ff ff ff 	movl   $0xffffffff,0x8(%esp)
 8049e6d:	ff 
 8049e6e:	c7 44 24 04 01 00 00 	movl   $0x1,0x4(%esp)
 8049e75:	00 
 8049e76:	89 34 24             	mov    %esi,(%esp)
 8049e79:	e8 92 ea ff ff       	call   8048910 <__sprintf_chk@plt>
 8049e7e:	89 1c 24             	mov    %ebx,(%esp)
 8049e81:	e8 6a ea ff ff       	call   80488f0 <close@plt>
 8049e86:	b8 ff ff ff ff       	mov    $0xffffffff,%eax
 8049e8b:	eb 16                	jmp    8049ea3 <init_driver+0x1f5>
 8049e8d:	89 1c 24             	mov    %ebx,(%esp)
 8049e90:	e8 5b ea ff ff       	call   80488f0 <close@plt>
 8049e95:	66 c7 06 4f 4b       	movw   $0x4b4f,(%esi)
 8049e9a:	c6 46 02 00          	movb   $0x0,0x2(%esi)
 8049e9e:	b8 00 00 00 00       	mov    $0x0,%eax
 8049ea3:	8b 4c 24 3c          	mov    0x3c(%esp),%ecx
 8049ea7:	65 33 0d 14 00 00 00 	xor    %gs:0x14,%ecx
 8049eae:	74 05                	je     8049eb5 <init_driver+0x207>
 8049eb0:	e8 0b e9 ff ff       	call   80487c0 <__stack_chk_fail@plt>
 8049eb5:	83 c4 40             	add    $0x40,%esp
 8049eb8:	5b                   	pop    %ebx
 8049eb9:	5e                   	pop    %esi
 8049eba:	5f                   	pop    %edi
 8049ebb:	c3                   	ret    

08049ebc <driver_post>:
 8049ebc:	53                   	push   %ebx
 8049ebd:	83 ec 28             	sub    $0x28,%esp
 8049ec0:	8b 44 24 30          	mov    0x30(%esp),%eax
 8049ec4:	8b 5c 24 3c          	mov    0x3c(%esp),%ebx
 8049ec8:	83 7c 24 38 00       	cmpl   $0x0,0x38(%esp)
 8049ecd:	74 2c                	je     8049efb <driver_post+0x3f>
 8049ecf:	8b 44 24 34          	mov    0x34(%esp),%eax
 8049ed3:	89 44 24 08          	mov    %eax,0x8(%esp)
 8049ed7:	c7 44 24 04 aa a4 04 	movl   $0x804a4aa,0x4(%esp)
 8049ede:	08 
 8049edf:	c7 04 24 01 00 00 00 	movl   $0x1,(%esp)
 8049ee6:	e8 a5 e9 ff ff       	call   8048890 <__printf_chk@plt>
 8049eeb:	66 c7 03 4f 4b       	movw   $0x4b4f,(%ebx)
 8049ef0:	c6 43 02 00          	movb   $0x0,0x2(%ebx)
 8049ef4:	b8 00 00 00 00       	mov    $0x0,%eax
 8049ef9:	eb 4d                	jmp    8049f48 <driver_post+0x8c>
 8049efb:	85 c0                	test   %eax,%eax
 8049efd:	74 3b                	je     8049f3a <driver_post+0x7e>
 8049eff:	80 38 00             	cmpb   $0x0,(%eax)
 8049f02:	74 36                	je     8049f3a <driver_post+0x7e>
 8049f04:	89 5c 24 18          	mov    %ebx,0x18(%esp)
 8049f08:	8b 54 24 34          	mov    0x34(%esp),%edx
 8049f0c:	89 54 24 14          	mov    %edx,0x14(%esp)
 8049f10:	c7 44 24 10 c1 a4 04 	movl   $0x804a4c1,0x10(%esp)
 8049f17:	08 
 8049f18:	89 44 24 0c          	mov    %eax,0xc(%esp)
 8049f1c:	c7 44 24 08 c9 a4 04 	movl   $0x804a4c9,0x8(%esp)
 8049f23:	08 
 8049f24:	c7 44 24 04 6e 3b 00 	movl   $0x3b6e,0x4(%esp)
 8049f2b:	00 
 8049f2c:	c7 04 24 9c a4 04 08 	movl   $0x804a49c,(%esp)
 8049f33:	e8 2b f5 ff ff       	call   8049463 <submitr>
 8049f38:	eb 0e                	jmp    8049f48 <driver_post+0x8c>
 8049f3a:	66 c7 03 4f 4b       	movw   $0x4b4f,(%ebx)
 8049f3f:	c6 43 02 00          	movb   $0x0,0x2(%ebx)
 8049f43:	b8 00 00 00 00       	mov    $0x0,%eax
 8049f48:	83 c4 28             	add    $0x28,%esp
 8049f4b:	5b                   	pop    %ebx
 8049f4c:	c3                   	ret    
 8049f4d:	66 90                	xchg   %ax,%ax
 8049f4f:	90                   	nop

08049f50 <__libc_csu_init>:
 8049f50:	55                   	push   %ebp
 8049f51:	57                   	push   %edi
 8049f52:	31 ff                	xor    %edi,%edi
 8049f54:	56                   	push   %esi
 8049f55:	53                   	push   %ebx
 8049f56:	e8 f5 e9 ff ff       	call   8048950 <__x86.get_pc_thunk.bx>
 8049f5b:	81 c3 a5 20 00 00    	add    $0x20a5,%ebx
 8049f61:	83 ec 1c             	sub    $0x1c,%esp
 8049f64:	8b 6c 24 30          	mov    0x30(%esp),%ebp
 8049f68:	8d b3 0c ff ff ff    	lea    -0xf4(%ebx),%esi
 8049f6e:	e8 b1 e7 ff ff       	call   8048724 <_init>
 8049f73:	8d 83 08 ff ff ff    	lea    -0xf8(%ebx),%eax
 8049f79:	29 c6                	sub    %eax,%esi
 8049f7b:	c1 fe 02             	sar    $0x2,%esi
 8049f7e:	85 f6                	test   %esi,%esi
 8049f80:	74 27                	je     8049fa9 <__libc_csu_init+0x59>
 8049f82:	8d b6 00 00 00 00    	lea    0x0(%esi),%esi
 8049f88:	8b 44 24 38          	mov    0x38(%esp),%eax
 8049f8c:	89 2c 24             	mov    %ebp,(%esp)
 8049f8f:	89 44 24 08          	mov    %eax,0x8(%esp)
 8049f93:	8b 44 24 34          	mov    0x34(%esp),%eax
 8049f97:	89 44 24 04          	mov    %eax,0x4(%esp)
 8049f9b:	ff 94 bb 08 ff ff ff 	call   *-0xf8(%ebx,%edi,4)
 8049fa2:	83 c7 01             	add    $0x1,%edi
 8049fa5:	39 f7                	cmp    %esi,%edi
 8049fa7:	75 df                	jne    8049f88 <__libc_csu_init+0x38>
 8049fa9:	83 c4 1c             	add    $0x1c,%esp
 8049fac:	5b                   	pop    %ebx
 8049fad:	5e                   	pop    %esi
 8049fae:	5f                   	pop    %edi
 8049faf:	5d                   	pop    %ebp
 8049fb0:	c3                   	ret    
 8049fb1:	eb 0d                	jmp    8049fc0 <__libc_csu_fini>
 8049fb3:	90                   	nop
 8049fb4:	90                   	nop
 8049fb5:	90                   	nop
 8049fb6:	90                   	nop
 8049fb7:	90                   	nop
 8049fb8:	90                   	nop
 8049fb9:	90                   	nop
 8049fba:	90                   	nop
 8049fbb:	90                   	nop
 8049fbc:	90                   	nop
 8049fbd:	90                   	nop
 8049fbe:	90                   	nop
 8049fbf:	90                   	nop

08049fc0 <__libc_csu_fini>:
 8049fc0:	f3 c3                	repz ret 

Disassembly of section .fini:

08049fc4 <_fini>:
 8049fc4:	53                   	push   %ebx
 8049fc5:	83 ec 08             	sub    $0x8,%esp
 8049fc8:	e8 83 e9 ff ff       	call   8048950 <__x86.get_pc_thunk.bx>
 8049fcd:	81 c3 33 20 00 00    	add    $0x2033,%ebx
 8049fd3:	83 c4 08             	add    $0x8,%esp
 8049fd6:	5b                   	pop    %ebx
 8049fd7:	c3                   	ret    
